 lua51.x86

 Timestamp is 54d0622e (Tue Feb 03 12:52:46 2015)

 Preferred load address is 10000000

 Start         Length     Name                   Class
 0001:00000000 0001ae26H .text                   CODE
 0001:0001ae28 000000b5H .text$yc                CODE
 0002:00000000 00000278H .idata$5                DATA
 0002:00000278 00000004H .CRT$XCA                DATA
 0002:0000027c 00000004H .CRT$XCZ                DATA
 0002:00000280 00000004H .CRT$XIA                DATA
 0002:00000284 00000004H .CRT$XIAA               DATA
 0002:00000288 00000004H .CRT$XIZ                DATA
 0002:0000028c 00000004H .CRTMA$XCA              DATA
 0002:00000290 0000001cH .CRTMA$XCC              DATA
 0002:000002ac 00000004H .CRTMA$XCZ              DATA
 0002:000002b0 00000004H .CRTMP$XCA              DATA
 0002:000002b4 00000004H .CRTMP$XCZ              DATA
 0002:000002b8 00000004H .CRTVT$XCA              DATA
 0002:000002bc 00000004H .CRTVT$XCZ              DATA
 0002:000002c0 00022844H .rdata                  DATA
 0002:00022b04 00000062H .rdata$debug            DATA
 0002:00022b68 000018a8H .rdata$ilfixup          DATA
 0002:00024410 00000048H .rdata$r                DATA
 0002:00024460 00000004H .rdata$sxdata           DATA
 0002:00024464 00000004H .rtc$IAA                DATA
 0002:00024468 00000004H .rtc$IZZ                DATA
 0002:0002446c 00000004H .rtc$TAA                DATA
 0002:00024470 00000004H .rtc$TZZ                DATA
 0002:00024478 000000f8H .xdata$x                DATA
 0002:00024570 00000050H .idata$2                DATA
 0002:000245c0 00000014H .idata$3                DATA
 0002:000245d4 00000278H .idata$4                DATA
 0002:0002484c 000009ccH .idata$6                DATA
 0002:00025218 00000000H .edata                  DATA
 0003:00000000 00000cd0H .data                   DATA
 0003:00000cd0 00001b20H .bss                    DATA
 0004:00000000 00000058H .rsrc$01                DATA
 0004:00000060 00000298H .rsrc$02                DATA

  Address         Publics by Value              Rva+Base       Lib:Object

 0000:00000000       __except_list              00000000     <absolute>
 0000:00000001       ?IsDefaultDomain@CurrentDomain@<CrtImplementationDetails>@@$$Q2_NA 00000001     <absolute>
 0000:00000001       ___safe_se_handler_count   00000001     <absolute>
 0000:00000004       ?_lock@AtExitLock@<CrtImplementationDetails>@@$$Q0PAXA 00000004     <absolute>
 0000:00000004       ?Uninitialized@CurrentDomain@<CrtImplementationDetails>@@$$Q2HA 00000004     <absolute>
 0000:00000004       ?_ref_count@AtExitLock@<CrtImplementationDetails>@@$$Q0HA 00000004     <absolute>
 0000:00000004       ?__onexitbegin_app_domain@@$$Q3PAP6MXXZA 00000004     <absolute>
 0000:00000004       ?Initialized@CurrentDomain@<CrtImplementationDetails>@@$$Q2HA 00000004     <absolute>
 0000:00000004       ?__exit_list_size_app_domain@@$$Q3IA 00000004     <absolute>
 0000:00000004       ?InitializedNative@CurrentDomain@<CrtImplementationDetails>@@$$Q2W4State@Progress@2@A 00000004     <absolute>
 0000:00000004       ?InitializedVtables@CurrentDomain@<CrtImplementationDetails>@@$$Q2W4State@Progress@2@A 00000004     <absolute>
 0000:00000004       ?InitializedPerProcess@CurrentDomain@<CrtImplementationDetails>@@$$Q2W4State@Progress@2@A 00000004     <absolute>
 0000:00000004       ?InitializedPerAppDomain@CurrentDomain@<CrtImplementationDetails>@@$$Q2W4State@Progress@2@A 00000004     <absolute>
 0000:00000004       ?__onexitend_app_domain@@$$Q3PAP6MXXZA 00000004     <absolute>
 0000:00009876       __fltused                  00009876     <absolute>
 0000:00009876       __ldused                   00009876     <absolute>
 0000:00000000       ___ImageBase               10000000     <linker-defined>
 0001:00000000       _localtime@0x9d2b4c3f      10001000 f i LuaDLL.obj
 0001:00000010       _time@0x9d2b4c3f           10001010 f i LuaDLL.obj
 0001:00000018       ?lua_gc@LuaDLL@Lua511@@$$FSMHVIntPtr@System@@W4LuaGCOptions@2@H@Z 10001018 f i LuaDLL.obj
 0001:00000038       ?lua_typename@LuaDLL@Lua511@@$$FSMP$AAVString@System@@VIntPtr@4@W4LuaTypes@2@@Z 10001038 f i LuaDLL.obj
 0001:0000005c       ?luaL_typename@LuaDLL@Lua511@@$$FSMP$AAVString@System@@VIntPtr@4@H@Z 1000105c f i LuaDLL.obj
 0001:00000078       ?luaL_error@LuaDLL@Lua511@@$$FSMXVIntPtr@System@@P$AAVString@4@@Z 10001078 f i LuaDLL.obj
 0001:000000b0       ?luaL_where@LuaDLL@Lua511@@$$FSMXVIntPtr@System@@H@Z 100010b0 f i LuaDLL.obj
 0001:000000cc       ?luaL_newstate@LuaDLL@Lua511@@$$FSM?AVIntPtr@System@@XZ 100010cc f i LuaDLL.obj
 0001:00000118       ?lua_close@LuaDLL@Lua511@@$$FSMXVIntPtr@System@@@Z 10001118 f i LuaDLL.obj
 0001:00000134       ?luaL_openlibs@LuaDLL@Lua511@@$$FSMXVIntPtr@System@@@Z 10001134 f i LuaDLL.obj
 0001:00000150       ?luaL_loadstring@LuaDLL@Lua511@@$$FSMHVIntPtr@System@@P$AAVString@4@@Z 10001150 f i LuaDLL.obj
 0001:0000018c       ?luaL_dostring@LuaDLL@Lua511@@$$FSMHVIntPtr@System@@P$AAVString@4@@Z 1000118c f i LuaDLL.obj
 0001:000001b4       ?lua_dostring@LuaDLL@Lua511@@$$FSMHVIntPtr@System@@P$AAVString@4@@Z 100011b4 f i LuaDLL.obj
 0001:000001cc       ?lua_createtable@LuaDLL@Lua511@@$$FSMXVIntPtr@System@@HH@Z 100011cc f i LuaDLL.obj
 0001:000001e8       ?lua_newtable@LuaDLL@Lua511@@$$FSMXVIntPtr@System@@@Z 100011e8 f i LuaDLL.obj
 0001:00000200       ?luaL_dofile@LuaDLL@Lua511@@$$FSMHVIntPtr@System@@P$AAVString@4@@Z 10001200 f i LuaDLL.obj
 0001:00000254       ?lua_getglobal@LuaDLL@Lua511@@$$FSMXVIntPtr@System@@P$AAVString@4@@Z 10001254 f i LuaDLL.obj
 0001:0000027c       ?lua_setglobal@LuaDLL@Lua511@@$$FSMXVIntPtr@System@@P$AAVString@4@@Z 1000127c f i LuaDLL.obj
 0001:000002a4       ?lua_settop@LuaDLL@Lua511@@$$FSMXVIntPtr@System@@H@Z 100012a4 f i LuaDLL.obj
 0001:000002c0       ?lua_pop@LuaDLL@Lua511@@$$FSMXVIntPtr@System@@H@Z 100012c0 f i LuaDLL.obj
 0001:000002d8       ?lua_insert@LuaDLL@Lua511@@$$FSMXVIntPtr@System@@H@Z 100012d8 f i LuaDLL.obj
 0001:000002f4       ?lua_remove@LuaDLL@Lua511@@$$FSMXVIntPtr@System@@H@Z 100012f4 f i LuaDLL.obj
 0001:00000310       ?lua_gettable@LuaDLL@Lua511@@$$FSMXVIntPtr@System@@H@Z 10001310 f i LuaDLL.obj
 0001:0000032c       ?lua_rawget@LuaDLL@Lua511@@$$FSMXVIntPtr@System@@H@Z 1000132c f i LuaDLL.obj
 0001:00000348       ?lua_settable@LuaDLL@Lua511@@$$FSMXVIntPtr@System@@H@Z 10001348 f i LuaDLL.obj
 0001:00000364       ?lua_rawset@LuaDLL@Lua511@@$$FSMXVIntPtr@System@@H@Z 10001364 f i LuaDLL.obj
 0001:00000380       ?lua_setmetatable@LuaDLL@Lua511@@$$FSMXVIntPtr@System@@H@Z 10001380 f i LuaDLL.obj
 0001:0000039c       ?lua_getmetatable@LuaDLL@Lua511@@$$FSMHVIntPtr@System@@H@Z 1000139c f i LuaDLL.obj
 0001:000003b8       ?lua_equal@LuaDLL@Lua511@@$$FSMHVIntPtr@System@@HH@Z 100013b8 f i LuaDLL.obj
 0001:000003d8       ?lua_pushvalue@LuaDLL@Lua511@@$$FSMXVIntPtr@System@@H@Z 100013d8 f i LuaDLL.obj
 0001:000003f4       ?lua_replace@LuaDLL@Lua511@@$$FSMXVIntPtr@System@@H@Z 100013f4 f i LuaDLL.obj
 0001:00000410       ?lua_gettop@LuaDLL@Lua511@@$$FSMHVIntPtr@System@@@Z 10001410 f i LuaDLL.obj
 0001:0000042c       ?lua_type@LuaDLL@Lua511@@$$FSM?AW4LuaTypes@2@VIntPtr@System@@H@Z 1000142c f i LuaDLL.obj
 0001:0000044c       ?lua_isnil@LuaDLL@Lua511@@$$FSM_NVIntPtr@System@@H@Z 1000144c f i LuaDLL.obj
 0001:00000468       ?lua_isnumber@LuaDLL@Lua511@@$$FSM_NVIntPtr@System@@H@Z 10001468 f i LuaDLL.obj
 0001:00000488       ?lua_isboolean@LuaDLL@Lua511@@$$FSM_NVIntPtr@System@@H@Z 10001488 f i LuaDLL.obj
 0001:000004a8       ?luaL_ref@LuaDLL@Lua511@@$$FSMHVIntPtr@System@@H@Z 100014a8 f i LuaDLL.obj
 0001:000004c4       ?lua_ref@LuaDLL@Lua511@@$$FSMHVIntPtr@System@@H@Z 100014c4 f i LuaDLL.obj
 0001:000004e8       ?lua_rawgeti@LuaDLL@Lua511@@$$FSMXVIntPtr@System@@HH@Z 100014e8 f i LuaDLL.obj
 0001:00000504       ?lua_rawseti@LuaDLL@Lua511@@$$FSMXVIntPtr@System@@HH@Z 10001504 f i LuaDLL.obj
 0001:00000520       ?lua_newuserdata@LuaDLL@Lua511@@$$FSM?AVIntPtr@System@@V34@H@Z 10001520 f i LuaDLL.obj
 0001:00000544       ?lua_touserdata@LuaDLL@Lua511@@$$FSM?AVIntPtr@System@@V34@H@Z 10001544 f i LuaDLL.obj
 0001:00000568       ?lua_getref@LuaDLL@Lua511@@$$FSMXVIntPtr@System@@H@Z 10001568 f i LuaDLL.obj
 0001:00000584       ?lua_unref@LuaDLL@Lua511@@$$FSMXVIntPtr@System@@H@Z 10001584 f i LuaDLL.obj
 0001:000005a4       ?lua_isstring@LuaDLL@Lua511@@$$FSM_NVIntPtr@System@@H@Z 100015a4 f i LuaDLL.obj
 0001:000005c8       ?lua_iscfunction@LuaDLL@Lua511@@$$FSM_NVIntPtr@System@@H@Z 100015c8 f i LuaDLL.obj
 0001:000005ec       ?lua_pushnil@LuaDLL@Lua511@@$$FSMXVIntPtr@System@@@Z 100015ec f i LuaDLL.obj
 0001:00000608       ?lua_call@LuaDLL@Lua511@@$$FSMXVIntPtr@System@@HH@Z 10001608 f i LuaDLL.obj
 0001:00000624       ?lua_pcall@LuaDLL@Lua511@@$$FSMHVIntPtr@System@@HHH@Z 10001624 f i LuaDLL.obj
 0001:00000644       ?lua_tocfunction@LuaDLL@Lua511@@$$FSM?AVIntPtr@System@@V34@H@Z 10001644 f i LuaDLL.obj
 0001:00000668       ?lua_tonumber@LuaDLL@Lua511@@$$FSMNVIntPtr@System@@H@Z 10001668 f i LuaDLL.obj
 0001:00000684       ?lua_toboolean@LuaDLL@Lua511@@$$FSM_NVIntPtr@System@@H@Z 10001684 f i LuaDLL.obj
 0001:000006ac       ?lua_tostring@LuaDLL@Lua511@@$$FSMP$AAVString@System@@VIntPtr@4@H@Z 100016ac f i LuaDLL.obj
 0001:00000714       ?lua_atpanic@LuaDLL@Lua511@@$$FSMXVIntPtr@System@@P$AAVLuaCSFunction@2@@Z 10001714 f i LuaDLL.obj
 0001:0000073c       ?lua_pushstdcallcfunction@LuaDLL@Lua511@@$$FSMXVIntPtr@System@@P$AAVLuaCSFunction@2@@Z 1000173c f i LuaDLL.obj
 0001:00000764       ?lua_pushnumber@LuaDLL@Lua511@@$$FSMXVIntPtr@System@@N@Z 10001764 f i LuaDLL.obj
 0001:00000780       ?lua_pushboolean@LuaDLL@Lua511@@$$FSMXVIntPtr@System@@_N@Z 10001780 f i LuaDLL.obj
 0001:0000079c       ?lua_pushstring@LuaDLL@Lua511@@$$FSMXVIntPtr@System@@P$AAVString@4@@Z 1000179c f i LuaDLL.obj
 0001:000007d4       ?luaL_newmetatable@LuaDLL@Lua511@@$$FSMHVIntPtr@System@@P$AAVString@4@@Z 100017d4 f i LuaDLL.obj
 0001:00000810       ?lua_getfield@LuaDLL@Lua511@@$$FSMXVIntPtr@System@@HP$AAVString@4@@Z 10001810 f i LuaDLL.obj
 0001:00000848       ?luaL_getmetatable@LuaDLL@Lua511@@$$FSMXVIntPtr@System@@P$AAVString@4@@Z 10001848 f i LuaDLL.obj
 0001:00000864       ?luaL_checkudata@LuaDLL@Lua511@@$$FSM?AVIntPtr@System@@V34@HP$AAVString@4@@Z 10001864 f i LuaDLL.obj
 0001:000008ac       ?luaL_getmetafield@LuaDLL@Lua511@@$$FSM_NVIntPtr@System@@HP$AAVString@4@@Z 100018ac f i LuaDLL.obj
 0001:000008f0       ?luaL_loadbuffer@LuaDLL@Lua511@@$$FSMHVIntPtr@System@@P$AAVString@4@1@Z 100018f0 f i LuaDLL.obj
 0001:00000954       ?luaL_loadfile@LuaDLL@Lua511@@$$FSMHVIntPtr@System@@P$AAVString@4@@Z 10001954 f i LuaDLL.obj
 0001:00000990       ?lua_error@LuaDLL@Lua511@@$$FSMXVIntPtr@System@@@Z 10001990 f i LuaDLL.obj
 0001:000009ac       ?lua_checkstack@LuaDLL@Lua511@@$$FSM_NVIntPtr@System@@H@Z 100019ac f i LuaDLL.obj
 0001:000009d0       ?lua_next@LuaDLL@Lua511@@$$FSMHVIntPtr@System@@H@Z 100019d0 f i LuaDLL.obj
 0001:000009ec       ?lua_pushlightuserdata@LuaDLL@Lua511@@$$FSMXVIntPtr@System@@0@Z 100019ec f i LuaDLL.obj
 0001:00000a0c       ?luanet_rawnetobj@LuaDLL@Lua511@@$$FSMHVIntPtr@System@@H@Z 10001a0c f i LuaDLL.obj
 0001:00000a34       ?lua_sethook@LuaDLL@Lua511@@$$FSMHVIntPtr@System@@P$AAVLuaHookFunction@2@HH@Z 10001a34 f i LuaDLL.obj
 0001:00000a78       ?lua_gethookmask@LuaDLL@Lua511@@$$FSMHVIntPtr@System@@@Z 10001a78 f i LuaDLL.obj
 0001:00000a94       ?lua_gethookcount@LuaDLL@Lua511@@$$FSMHVIntPtr@System@@@Z 10001a94 f i LuaDLL.obj
 0001:00000ab0       ?lua_getstack@LuaDLL@Lua511@@$$FSMHVIntPtr@System@@H0@Z 10001ab0 f i LuaDLL.obj
 0001:00000ad4       ?lua_getinfo@LuaDLL@Lua511@@$$FSMHVIntPtr@System@@P$AAVString@4@0@Z 10001ad4 f i LuaDLL.obj
 0001:00000b18       ?lua_getlocal@LuaDLL@Lua511@@$$FSMP$AAVString@System@@VIntPtr@4@0H@Z 10001b18 f i LuaDLL.obj
 0001:00000b4c       ?lua_setlocal@LuaDLL@Lua511@@$$FSMP$AAVString@System@@VIntPtr@4@0H@Z 10001b4c f i LuaDLL.obj
 0001:00000b80       ?lua_getupvalue@LuaDLL@Lua511@@$$FSMP$AAVString@System@@VIntPtr@4@HH@Z 10001b80 f i LuaDLL.obj
 0001:00000bac       ?lua_setupvalue@LuaDLL@Lua511@@$$FSMP$AAVString@System@@VIntPtr@4@HH@Z 10001bac f i LuaDLL.obj
 0001:00000bd8       ?checkudata_raw@LuaDLL@Lua511@@$$FCMPAXPAUlua_State@@HPBD@Z 10001bd8 f i LuaDLL.obj
 0001:00000c24       ?luanet_checkudata@LuaDLL@Lua511@@$$FSMHVIntPtr@System@@HP$AAVString@4@@Z 10001c24 f i LuaDLL.obj
 0001:00000c6c       ?luaL_checkmetatable@LuaDLL@Lua511@@$$FSM_NVIntPtr@System@@H@Z 10001c6c f i LuaDLL.obj
 0001:00000cc4       ?luanet_gettag@LuaDLL@Lua511@@$$FSM?AVIntPtr@System@@XZ 10001cc4 f i LuaDLL.obj
 0001:00000ce0       ?luanet_newudata@LuaDLL@Lua511@@$$FSMXVIntPtr@System@@H@Z 10001ce0 f i LuaDLL.obj
 0001:00000d00       ?luanet_tonetobject@LuaDLL@Lua511@@$$FSMHVIntPtr@System@@H@Z 10001d00 f i LuaDLL.obj
 0001:00000d8c       ??0LuaDLL@Lua511@@$$FQ$AAM@XZ 10001d8c f i LuaDLL.obj
 0001:00000da0       ?strchr@@$$FYAPADPADH@Z    10001da0 f i luaglue.obj
 0001:00000dc0       __t2m@?strchr@@YAPADPADH@Z 10001dc0 f i luaglue.obj
 0001:00000dc8       ?strrchr@@$$FYAPADPADH@Z   10001dc8 f i luaglue.obj
 0001:00000de0       __t2m@?strrchr@@YAPADPADH@Z 10001de0 f i luaglue.obj
 0001:00000df0       ?index2adr@?A0xd55f0479@@YGPAUlua_TValue@@PAUlua_State@@H@Z 10001df0 f   luaglue.obj
 0001:00000e00       ?getcurrenv@?A0xd55f0479@@YGPAUTable@@PAUlua_State@@@Z 10001e00 f   luaglue.obj
 0001:00000e10       ?luaA_pushobject@@YGXPAUlua_State@@PBUlua_TValue@@@Z 10001e10 f   luaglue.obj
 0001:00000e20       ?lua_checkstack@@YGHPAUlua_State@@H@Z 10001e20 f   luaglue.obj
 0001:00000e30       ?lua_xmove@@YGXPAUlua_State@@0H@Z 10001e30 f   luaglue.obj
 0001:00000e40       ?lua_setlevel@@YGXPAUlua_State@@0@Z 10001e40 f   luaglue.obj
 0001:00000e50       ?lua_atpanic@@YGP6GHPAUlua_State@@@Z0P6GH0@Z@Z 10001e50 f   luaglue.obj
 0001:00000e60       ?lua_newthread@@YGPAUlua_State@@PAU1@@Z 10001e60 f   luaglue.obj
 0001:00000e70       ?lua_gettop@@YGHPAUlua_State@@@Z 10001e70 f   luaglue.obj
 0001:00000e80       ?lua_settop@@YGXPAUlua_State@@H@Z 10001e80 f   luaglue.obj
 0001:00000e90       ?lua_remove@@YGXPAUlua_State@@H@Z 10001e90 f   luaglue.obj
 0001:00000ea0       ?lua_insert@@YGXPAUlua_State@@H@Z 10001ea0 f   luaglue.obj
 0001:00000eb0       ?lua_replace@@YGXPAUlua_State@@H@Z 10001eb0 f   luaglue.obj
 0001:00000ec0       ?lua_pushvalue@@YGXPAUlua_State@@H@Z 10001ec0 f   luaglue.obj
 0001:00000ed0       ?lua_type@@YGHPAUlua_State@@H@Z 10001ed0 f   luaglue.obj
 0001:00000ee0       ?lua_typename@@YGPBDPAUlua_State@@H@Z 10001ee0 f   luaglue.obj
 0001:00000ef0       ?lua_iscfunction@@YGHPAUlua_State@@H@Z 10001ef0 f   luaglue.obj
 0001:00000f00       ?lua_isnumber@@YGHPAUlua_State@@H@Z 10001f00 f   luaglue.obj
 0001:00000f10       ?lua_isstring@@YGHPAUlua_State@@H@Z 10001f10 f   luaglue.obj
 0001:00000f20       ?lua_isuserdata@@YGHPAUlua_State@@H@Z 10001f20 f   luaglue.obj
 0001:00000f30       ?lua_rawequal@@YGHPAUlua_State@@HH@Z 10001f30 f   luaglue.obj
 0001:00000f40       ?lua_equal@@YGHPAUlua_State@@HH@Z 10001f40 f   luaglue.obj
 0001:00000f50       ?lua_lessthan@@YGHPAUlua_State@@HH@Z 10001f50 f   luaglue.obj
 0001:00000f60       ?lua_tonumber@@YGNPAUlua_State@@H@Z 10001f60 f   luaglue.obj
 0001:00000f70       ?lua_toboolean@@YGHPAUlua_State@@H@Z 10001f70 f   luaglue.obj
 0001:00000f80       ?lua_tolstring@@YGPBDPAUlua_State@@HPAI@Z 10001f80 f   luaglue.obj
 0001:00000f90       ?lua_objlen@@YGIPAUlua_State@@H@Z 10001f90 f   luaglue.obj
 0001:00000fa0       ?lua_tocfunction@@YGP6GHPAUlua_State@@@Z0H@Z 10001fa0 f   luaglue.obj
 0001:00000fb0       ?lua_touserdata@@YGPAXPAUlua_State@@H@Z 10001fb0 f   luaglue.obj
 0001:00000fc0       ?lua_tothread@@YGPAUlua_State@@PAU1@H@Z 10001fc0 f   luaglue.obj
 0001:00000fd0       ?lua_topointer@@YGPBXPAUlua_State@@H@Z 10001fd0 f   luaglue.obj
 0001:00000fe0       ?lua_pushnil@@YGXPAUlua_State@@@Z 10001fe0 f   luaglue.obj
 0001:00000ff0       ?lua_pushnumber@@YGXPAUlua_State@@N@Z 10001ff0 f   luaglue.obj
 0001:00001000       ?lua_pushinteger@@YGXPAUlua_State@@H@Z 10002000 f   luaglue.obj
 0001:00001010       ?lua_pushlstring@@YGXPAUlua_State@@PBDI@Z 10002010 f   luaglue.obj
 0001:00001020       ?lua_pushstring@@YGXPAUlua_State@@PBD@Z 10002020 f   luaglue.obj
 0001:00001030       ?lua_pushvfstring@@YGPBDPAUlua_State@@PBDPAD@Z 10002030 f   luaglue.obj
 0001:00001040       ?lua_pushcclosure@@YGXPAUlua_State@@P6GH0@ZH@Z 10002040 f   luaglue.obj
 0001:00001050       ?lua_pushboolean@@YGXPAUlua_State@@H@Z 10002050 f   luaglue.obj
 0001:00001060       ?lua_pushlightuserdata@@YGXPAUlua_State@@PAX@Z 10002060 f   luaglue.obj
 0001:00001070       ?lua_pushthread@@YGHPAUlua_State@@@Z 10002070 f   luaglue.obj
 0001:00001080       ?lua_gettable@@YGXPAUlua_State@@H@Z 10002080 f   luaglue.obj
 0001:00001090       ?lua_getfield@@YGXPAUlua_State@@HPBD@Z 10002090 f   luaglue.obj
 0001:000010a0       ?lua_rawget@@YGXPAUlua_State@@H@Z 100020a0 f   luaglue.obj
 0001:000010b0       ?lua_rawgeti@@YGXPAUlua_State@@HH@Z 100020b0 f   luaglue.obj
 0001:000010c0       ?lua_createtable@@YGXPAUlua_State@@HH@Z 100020c0 f   luaglue.obj
 0001:000010d0       ?lua_getmetatable@@YGHPAUlua_State@@H@Z 100020d0 f   luaglue.obj
 0001:000010e0       ?lua_getfenv@@YGXPAUlua_State@@H@Z 100020e0 f   luaglue.obj
 0001:000010f0       ?lua_settable@@YGXPAUlua_State@@H@Z 100020f0 f   luaglue.obj
 0001:00001100       ?lua_setfield@@YGXPAUlua_State@@HPBD@Z 10002100 f   luaglue.obj
 0001:00001110       ?lua_rawset@@YGXPAUlua_State@@H@Z 10002110 f   luaglue.obj
 0001:00001120       ?lua_rawseti@@YGXPAUlua_State@@HH@Z 10002120 f   luaglue.obj
 0001:00001130       ?lua_setmetatable@@YGHPAUlua_State@@H@Z 10002130 f   luaglue.obj
 0001:00001140       ?lua_setfenv@@YGHPAUlua_State@@H@Z 10002140 f   luaglue.obj
 0001:00001150       ?lua_call@@YGXPAUlua_State@@HH@Z 10002150 f   luaglue.obj
 0001:00001160       ?f_call@?A0xd55f0479@@YGXPAUlua_State@@PAX@Z 10002160 f   luaglue.obj
 0001:00001170       ?lua_pcall@@YGHPAUlua_State@@HHH@Z 10002170 f   luaglue.obj
 0001:00001180       ?f_Ccall@?A0xd55f0479@@YGXPAUlua_State@@PAX@Z 10002180 f   luaglue.obj
 0001:00001190       ?lua_cpcall@@YGHPAUlua_State@@P6GH0@ZPAX@Z 10002190 f   luaglue.obj
 0001:000011a0       ?lua_load@@YGHPAUlua_State@@P6GPBD0PAXPAI@Z1PBD@Z 100021a0 f   luaglue.obj
 0001:000011b0       ?lua_dump@@YGHPAUlua_State@@P6GH0PBXIPAX@Z2@Z 100021b0 f   luaglue.obj
 0001:000011c0       ?lua_status@@YGHPAUlua_State@@@Z 100021c0 f   luaglue.obj
 0001:000011d0       ?lua_gc@@YGHPAUlua_State@@HH@Z 100021d0 f   luaglue.obj
 0001:000011e0       ?lua_error@@YGHPAUlua_State@@@Z 100021e0 f   luaglue.obj
 0001:000011f0       ?lua_next@@YGHPAUlua_State@@H@Z 100021f0 f   luaglue.obj
 0001:00001200       ?lua_concat@@YGXPAUlua_State@@H@Z 10002200 f   luaglue.obj
 0001:00001210       ?lua_getallocf@@YGP6GPAXPAX0II@ZPAUlua_State@@PAPAX@Z 10002210 f   luaglue.obj
 0001:00001220       ?lua_setallocf@@YGXPAUlua_State@@P6GPAXPAX1II@Z1@Z 10002220 f   luaglue.obj
 0001:00001230       ?lua_newuserdata@@YGPAXPAUlua_State@@I@Z 10002230 f   luaglue.obj
 0001:00001240       ?aux_upvalue@?A0xd55f0479@@YGPBDPAUlua_TValue@@HPAPAU2@@Z 10002240 f   luaglue.obj
 0001:00001250       ?lua_getupvalue@@YGPBDPAUlua_State@@HH@Z 10002250 f   luaglue.obj
 0001:00001260       ?lua_setupvalue@@YGPBDPAUlua_State@@HH@Z 10002260 f   luaglue.obj
 0001:00001270       ?luaL_argerror@@YGHPAUlua_State@@HPBD@Z 10002270 f   luaglue.obj
 0001:00001280       ?luaL_typerror@@YGHPAUlua_State@@HPBD@Z 10002280 f   luaglue.obj
 0001:00001290       ?tag_error@?A0xd55f0479@@YGXPAUlua_State@@HH@Z 10002290 f   luaglue.obj
 0001:000012a0       ?luaL_where@@YGXPAUlua_State@@H@Z 100022a0 f   luaglue.obj
 0001:000012b0       ?luaL_checkoption@@YGHPAUlua_State@@HPBDQBQBD@Z 100022b0 f   luaglue.obj
 0001:000012c0       ?luaL_newmetatable@@YGHPAUlua_State@@PBD@Z 100022c0 f   luaglue.obj
 0001:000012d0       ?luaL_checkudata@@YGPAXPAUlua_State@@HPBD@Z 100022d0 f   luaglue.obj
 0001:000012e0       ?luaL_checkstack@@YGXPAUlua_State@@HPBD@Z 100022e0 f   luaglue.obj
 0001:000012f0       ?luaL_checktype@@YGXPAUlua_State@@HH@Z 100022f0 f   luaglue.obj
 0001:00001300       ?luaL_checkany@@YGXPAUlua_State@@H@Z 10002300 f   luaglue.obj
 0001:00001310       ?luaL_checklstring@@YGPBDPAUlua_State@@HPAI@Z 10002310 f   luaglue.obj
 0001:00001320       ?luaL_optlstring@@YGPBDPAUlua_State@@HPBDPAI@Z 10002320 f   luaglue.obj
 0001:00001330       ?luaL_checknumber@@YGNPAUlua_State@@H@Z 10002330 f   luaglue.obj
 0001:00001340       ?luaL_optnumber@@YGNPAUlua_State@@HN@Z 10002340 f   luaglue.obj
 0001:00001350       ?luaL_checkinteger@@YGHPAUlua_State@@H@Z 10002350 f   luaglue.obj
 0001:00001360       ?luaL_optinteger@@YGHPAUlua_State@@HH@Z 10002360 f   luaglue.obj
 0001:00001370       ?luaL_getmetafield@@YGHPAUlua_State@@HPBD@Z 10002370 f   luaglue.obj
 0001:00001380       ?luaL_callmeta@@YGHPAUlua_State@@HPBD@Z 10002380 f   luaglue.obj
 0001:00001390       ?luaL_register@@YGXPAUlua_State@@PBDPBUluaL_Reg@@@Z 10002390 f   luaglue.obj
 0001:000013a0       ?libsize@?A0xd55f0479@@YGHPBUluaL_Reg@@@Z 100023a0 f   luaglue.obj
 0001:000013b0       ?luaL_openlib@@YGXPAUlua_State@@PBDPBUluaL_Reg@@H@Z 100023b0 f   luaglue.obj
 0001:000013c0       ?luaL_gsub@@YGPBDPAUlua_State@@PBD11@Z 100023c0 f   luaglue.obj
 0001:000013d0       ?luaL_findtable@@YGPBDPAUlua_State@@HPBDH@Z 100023d0 f   luaglue.obj
 0001:000013e0       ?emptybuffer@?A0xd55f0479@@YGHPAUluaL_Buffer@@@Z 100023e0 f   luaglue.obj
 0001:000013f0       ?adjuststack@?A0xd55f0479@@YGXPAUluaL_Buffer@@@Z 100023f0 f   luaglue.obj
 0001:00001400       ?luaL_prepbuffer@@YGPADPAUluaL_Buffer@@@Z 10002400 f   luaglue.obj
 0001:00001410       ?luaL_addlstring@@YGXPAUluaL_Buffer@@PBDI@Z 10002410 f   luaglue.obj
 0001:00001420       ?luaL_addstring@@YGXPAUluaL_Buffer@@PBD@Z 10002420 f   luaglue.obj
 0001:00001430       ?luaL_pushresult@@YGXPAUluaL_Buffer@@@Z 10002430 f   luaglue.obj
 0001:00001440       ?luaL_addvalue@@YGXPAUluaL_Buffer@@@Z 10002440 f   luaglue.obj
 0001:00001450       ?luaL_buffinit@@YGXPAUlua_State@@PAUluaL_Buffer@@@Z 10002450 f   luaglue.obj
 0001:00001460       ?luaL_ref@@YGHPAUlua_State@@H@Z 10002460 f   luaglue.obj
 0001:00001470       ?luaL_unref@@YGXPAUlua_State@@HH@Z 10002470 f   luaglue.obj
 0001:00001480       ?getF@?A0xd55f0479@@YGPBDPAUlua_State@@PAXPAI@Z 10002480 f   luaglue.obj
 0001:00001490       ?errfile@?A0xd55f0479@@YGHPAUlua_State@@PBDH@Z 10002490 f   luaglue.obj
 0001:000014a0       ?luaL_loadfile@@YGHPAUlua_State@@PBD@Z 100024a0 f   luaglue.obj
 0001:000014b0       ?getS@?A0xd55f0479@@YGPBDPAUlua_State@@PAXPAI@Z 100024b0 f   luaglue.obj
 0001:000014c0       ?luaL_loadbuffer@@YGHPAUlua_State@@PBDI1@Z 100024c0 f   luaglue.obj
 0001:000014d0       ?luaL_loadstring@@YGHPAUlua_State@@PBD@Z 100024d0 f   luaglue.obj
 0001:000014e0       ?l_alloc@?A0xd55f0479@@YGPAXPAX0II@Z 100024e0 f   luaglue.obj
 0001:000014f0       ?panic@?A0xd55f0479@@YGHPAUlua_State@@@Z 100024f0 f   luaglue.obj
 0001:00001500       ?luaL_newstate@@YGPAUlua_State@@XZ 10002500 f   luaglue.obj
 0001:00001510       ?luaB_print@?A0xd55f0479@@YGHPAUlua_State@@@Z 10002510 f   luaglue.obj
 0001:00001520       ?luaB_tonumber@?A0xd55f0479@@YGHPAUlua_State@@@Z 10002520 f   luaglue.obj
 0001:00001530       ?luaB_error@?A0xd55f0479@@YGHPAUlua_State@@@Z 10002530 f   luaglue.obj
 0001:00001540       ?luaB_getmetatable@?A0xd55f0479@@YGHPAUlua_State@@@Z 10002540 f   luaglue.obj
 0001:00001550       ?luaB_setmetatable@?A0xd55f0479@@YGHPAUlua_State@@@Z 10002550 f   luaglue.obj
 0001:00001560       ?getfunc@?A0xd55f0479@@YGXPAUlua_State@@H@Z 10002560 f   luaglue.obj
 0001:00001570       ?luaB_getfenv@?A0xd55f0479@@YGHPAUlua_State@@@Z 10002570 f   luaglue.obj
 0001:00001580       ?luaB_setfenv@?A0xd55f0479@@YGHPAUlua_State@@@Z 10002580 f   luaglue.obj
 0001:00001590       ?luaB_rawequal@?A0xd55f0479@@YGHPAUlua_State@@@Z 10002590 f   luaglue.obj
 0001:000015a0       ?luaB_rawget@?A0xd55f0479@@YGHPAUlua_State@@@Z 100025a0 f   luaglue.obj
 0001:000015b0       ?luaB_rawset@?A0xd55f0479@@YGHPAUlua_State@@@Z 100025b0 f   luaglue.obj
 0001:000015c0       ?luaB_gcinfo@?A0xd55f0479@@YGHPAUlua_State@@@Z 100025c0 f   luaglue.obj
 0001:000015d0       ?luaB_collectgarbage@?A0xd55f0479@@YGHPAUlua_State@@@Z 100025d0 f   luaglue.obj
 0001:000015e0       ?luaB_type@?A0xd55f0479@@YGHPAUlua_State@@@Z 100025e0 f   luaglue.obj
 0001:000015f0       ?luaB_next@?A0xd55f0479@@YGHPAUlua_State@@@Z 100025f0 f   luaglue.obj
 0001:00001600       ?luaB_pairs@?A0xd55f0479@@YGHPAUlua_State@@@Z 10002600 f   luaglue.obj
 0001:00001610       ?ipairsaux@?A0xd55f0479@@YGHPAUlua_State@@@Z 10002610 f   luaglue.obj
 0001:00001620       ?luaB_ipairs@?A0xd55f0479@@YGHPAUlua_State@@@Z 10002620 f   luaglue.obj
 0001:00001630       ?load_aux@?A0xd55f0479@@YGHPAUlua_State@@H@Z 10002630 f   luaglue.obj
 0001:00001640       ?luaB_loadstring@?A0xd55f0479@@YGHPAUlua_State@@@Z 10002640 f   luaglue.obj
 0001:00001650       ?luaB_loadfile@?A0xd55f0479@@YGHPAUlua_State@@@Z 10002650 f   luaglue.obj
 0001:00001660       ?generic_reader@?A0xd55f0479@@YGPBDPAUlua_State@@PAXPAI@Z 10002660 f   luaglue.obj
 0001:00001670       ?luaB_load@?A0xd55f0479@@YGHPAUlua_State@@@Z 10002670 f   luaglue.obj
 0001:00001680       ?luaB_dofile@?A0xd55f0479@@YGHPAUlua_State@@@Z 10002680 f   luaglue.obj
 0001:00001690       ?luaB_assert@?A0xd55f0479@@YGHPAUlua_State@@@Z 10002690 f   luaglue.obj
 0001:000016a0       ?luaB_unpack@?A0xd55f0479@@YGHPAUlua_State@@@Z 100026a0 f   luaglue.obj
 0001:000016b0       ?luaB_select@?A0xd55f0479@@YGHPAUlua_State@@@Z 100026b0 f   luaglue.obj
 0001:000016c0       ?luaB_pcall@?A0xd55f0479@@YGHPAUlua_State@@@Z 100026c0 f   luaglue.obj
 0001:000016d0       ?luaB_xpcall@?A0xd55f0479@@YGHPAUlua_State@@@Z 100026d0 f   luaglue.obj
 0001:000016e0       ?luaB_tostring@?A0xd55f0479@@YGHPAUlua_State@@@Z 100026e0 f   luaglue.obj
 0001:000016f0       ?luaB_newproxy@?A0xd55f0479@@YGHPAUlua_State@@@Z 100026f0 f   luaglue.obj
 0001:00001700       ?costatus@?A0xd55f0479@@YGHPAUlua_State@@0@Z 10002700 f   luaglue.obj
 0001:00001710       ?luaB_costatus@?A0xd55f0479@@YGHPAUlua_State@@@Z 10002710 f   luaglue.obj
 0001:00001720       ?auxresume@?A0xd55f0479@@YGHPAUlua_State@@0H@Z 10002720 f   luaglue.obj
 0001:00001730       ?luaB_coresume@?A0xd55f0479@@YGHPAUlua_State@@@Z 10002730 f   luaglue.obj
 0001:00001740       ?luaB_auxwrap@?A0xd55f0479@@YGHPAUlua_State@@@Z 10002740 f   luaglue.obj
 0001:00001750       ?luaB_cocreate@?A0xd55f0479@@YGHPAUlua_State@@@Z 10002750 f   luaglue.obj
 0001:00001760       ?luaB_cowrap@?A0xd55f0479@@YGHPAUlua_State@@@Z 10002760 f   luaglue.obj
 0001:00001770       ?luaB_yield@?A0xd55f0479@@YGHPAUlua_State@@@Z 10002770 f   luaglue.obj
 0001:00001780       ?luaB_corunning@?A0xd55f0479@@YGHPAUlua_State@@@Z 10002780 f   luaglue.obj
 0001:00001790       ?auxopen@?A0xd55f0479@@YGXPAUlua_State@@PBDP6GH0@Z2@Z 10002790 f   luaglue.obj
 0001:000017a0       ?base_open@?A0xd55f0479@@YGXPAUlua_State@@@Z 100027a0 f   luaglue.obj
 0001:000017b0       ?luaopen_base@@YGHPAUlua_State@@@Z 100027b0 f   luaglue.obj
 0001:000017c0       ?isnumeral@?A0xd55f0479@@YGHPAUexpdesc@@@Z 100027c0 f   luaglue.obj
 0001:000017d0       ?luaK_nil@@YGXPAUFuncState@@HH@Z 100027d0 f   luaglue.obj
 0001:000017e0       ?luaK_jump@@YGHPAUFuncState@@@Z 100027e0 f   luaglue.obj
 0001:000017f0       ?luaK_ret@@YGXPAUFuncState@@HH@Z 100027f0 f   luaglue.obj
 0001:00001800       ?condjump@?A0xd55f0479@@YGHPAUFuncState@@W4OpCode@@HHH@Z 10002800 f   luaglue.obj
 0001:00001810       ?fixjump@?A0xd55f0479@@YGXPAUFuncState@@HH@Z 10002810 f   luaglue.obj
 0001:00001820       ?luaK_getlabel@@YGHPAUFuncState@@@Z 10002820 f   luaglue.obj
 0001:00001830       ?getjump@?A0xd55f0479@@YGHPAUFuncState@@H@Z 10002830 f   luaglue.obj
 0001:00001840       ?getjumpcontrol@?A0xd55f0479@@YGPAIPAUFuncState@@H@Z 10002840 f   luaglue.obj
 0001:00001850       ?need_value@?A0xd55f0479@@YGHPAUFuncState@@H@Z 10002850 f   luaglue.obj
 0001:00001860       ?patchtestreg@?A0xd55f0479@@YGHPAUFuncState@@HH@Z 10002860 f   luaglue.obj
 0001:00001870       ?removevalues@?A0xd55f0479@@YGXPAUFuncState@@H@Z 10002870 f   luaglue.obj
 0001:00001880       ?patchlistaux@?A0xd55f0479@@YGXPAUFuncState@@HHHH@Z 10002880 f   luaglue.obj
 0001:00001890       ?dischargejpc@?A0xd55f0479@@YGXPAUFuncState@@@Z 10002890 f   luaglue.obj
 0001:000018a0       ?luaK_patchlist@@YGXPAUFuncState@@HH@Z 100028a0 f   luaglue.obj
 0001:000018b0       ?luaK_patchtohere@@YGXPAUFuncState@@H@Z 100028b0 f   luaglue.obj
 0001:000018c0       ?luaK_concat@@YGXPAUFuncState@@PAHH@Z 100028c0 f   luaglue.obj
 0001:000018d0       ?luaK_checkstack@@YGXPAUFuncState@@H@Z 100028d0 f   luaglue.obj
 0001:000018e0       ?luaK_reserveregs@@YGXPAUFuncState@@H@Z 100028e0 f   luaglue.obj
 0001:000018f0       ?freereg@?A0xd55f0479@@YGXPAUFuncState@@H@Z 100028f0 f   luaglue.obj
 0001:00001900       ?freeexp@?A0xd55f0479@@YGXPAUFuncState@@PAUexpdesc@@@Z 10002900 f   luaglue.obj
 0001:00001910       ?addk@?A0xd55f0479@@YGHPAUFuncState@@PAUlua_TValue@@1@Z 10002910 f   luaglue.obj
 0001:00001920       ?luaK_stringK@@YGHPAUFuncState@@PATTString@@@Z 10002920 f   luaglue.obj
 0001:00001930       ?luaK_numberK@@YGHPAUFuncState@@N@Z 10002930 f   luaglue.obj
 0001:00001940       ?boolK@?A0xd55f0479@@YGHPAUFuncState@@H@Z 10002940 f   luaglue.obj
 0001:00001950       ?nilK@?A0xd55f0479@@YGHPAUFuncState@@@Z 10002950 f   luaglue.obj
 0001:00001960       ?luaK_setreturns@@YGXPAUFuncState@@PAUexpdesc@@H@Z 10002960 f   luaglue.obj
 0001:00001970       ?luaK_setoneret@@YGXPAUFuncState@@PAUexpdesc@@@Z 10002970 f   luaglue.obj
 0001:00001980       ?luaK_dischargevars@@YGXPAUFuncState@@PAUexpdesc@@@Z 10002980 f   luaglue.obj
 0001:00001990       ?code_label@?A0xd55f0479@@YGHPAUFuncState@@HHH@Z 10002990 f   luaglue.obj
 0001:000019a0       ?discharge2reg@?A0xd55f0479@@YGXPAUFuncState@@PAUexpdesc@@H@Z 100029a0 f   luaglue.obj
 0001:000019b0       ?discharge2anyreg@?A0xd55f0479@@YGXPAUFuncState@@PAUexpdesc@@@Z 100029b0 f   luaglue.obj
 0001:000019c0       ?exp2reg@?A0xd55f0479@@YGXPAUFuncState@@PAUexpdesc@@H@Z 100029c0 f   luaglue.obj
 0001:000019d0       ?luaK_exp2nextreg@@YGXPAUFuncState@@PAUexpdesc@@@Z 100029d0 f   luaglue.obj
 0001:000019e0       ?luaK_exp2anyreg@@YGHPAUFuncState@@PAUexpdesc@@@Z 100029e0 f   luaglue.obj
 0001:000019f0       ?luaK_exp2val@@YGXPAUFuncState@@PAUexpdesc@@@Z 100029f0 f   luaglue.obj
 0001:00001a00       ?luaK_exp2RK@@YGHPAUFuncState@@PAUexpdesc@@@Z 10002a00 f   luaglue.obj
 0001:00001a10       ?luaK_storevar@@YGXPAUFuncState@@PAUexpdesc@@1@Z 10002a10 f   luaglue.obj
 0001:00001a20       ?luaK_self@@YGXPAUFuncState@@PAUexpdesc@@1@Z 10002a20 f   luaglue.obj
 0001:00001a30       ?invertjump@?A0xd55f0479@@YGXPAUFuncState@@PAUexpdesc@@@Z 10002a30 f   luaglue.obj
 0001:00001a40       ?jumponcond@?A0xd55f0479@@YGHPAUFuncState@@PAUexpdesc@@H@Z 10002a40 f   luaglue.obj
 0001:00001a50       ?luaK_goiftrue@@YGXPAUFuncState@@PAUexpdesc@@@Z 10002a50 f   luaglue.obj
 0001:00001a60       ?luaK_goiffalse@?A0xd55f0479@@YGXPAUFuncState@@PAUexpdesc@@@Z 10002a60 f   luaglue.obj
 0001:00001a70       ?codenot@?A0xd55f0479@@YGXPAUFuncState@@PAUexpdesc@@@Z 10002a70 f   luaglue.obj
 0001:00001a80       ?luaK_indexed@@YGXPAUFuncState@@PAUexpdesc@@1@Z 10002a80 f   luaglue.obj
 0001:00001a90       ?constfolding@?A0xd55f0479@@YGHW4OpCode@@PAUexpdesc@@1@Z 10002a90 f   luaglue.obj
 0001:00001aa0       ?codearith@?A0xd55f0479@@YGXPAUFuncState@@W4OpCode@@PAUexpdesc@@2@Z 10002aa0 f   luaglue.obj
 0001:00001ab0       ?codecomp@?A0xd55f0479@@YGXPAUFuncState@@W4OpCode@@HPAUexpdesc@@2@Z 10002ab0 f   luaglue.obj
 0001:00001ac0       ?luaK_prefix@@YGXPAUFuncState@@W4UnOpr@@PAUexpdesc@@@Z 10002ac0 f   luaglue.obj
 0001:00001ad0       ?luaK_infix@@YGXPAUFuncState@@W4BinOpr@@PAUexpdesc@@@Z 10002ad0 f   luaglue.obj
 0001:00001ae0       ?luaK_posfix@@YGXPAUFuncState@@W4BinOpr@@PAUexpdesc@@2@Z 10002ae0 f   luaglue.obj
 0001:00001af0       ?luaK_fixline@@YGXPAUFuncState@@H@Z 10002af0 f   luaglue.obj
 0001:00001b00       ?luaK_code@?A0xd55f0479@@YGHPAUFuncState@@IH@Z 10002b00 f   luaglue.obj
 0001:00001b10       ?luaK_codeABC@@YGHPAUFuncState@@W4OpCode@@HHH@Z 10002b10 f   luaglue.obj
 0001:00001b20       ?luaK_codeABx@@YGHPAUFuncState@@W4OpCode@@HI@Z 10002b20 f   luaglue.obj
 0001:00001b30       ?luaK_setlist@@YGXPAUFuncState@@HHH@Z 10002b30 f   luaglue.obj
 0001:00001b40       ?db_getregistry@?A0xd55f0479@@YGHPAUlua_State@@@Z 10002b40 f   luaglue.obj
 0001:00001b50       ?db_getmetatable@?A0xd55f0479@@YGHPAUlua_State@@@Z 10002b50 f   luaglue.obj
 0001:00001b60       ?db_setmetatable@?A0xd55f0479@@YGHPAUlua_State@@@Z 10002b60 f   luaglue.obj
 0001:00001b70       ?db_getfenv@?A0xd55f0479@@YGHPAUlua_State@@@Z 10002b70 f   luaglue.obj
 0001:00001b80       ?db_setfenv@?A0xd55f0479@@YGHPAUlua_State@@@Z 10002b80 f   luaglue.obj
 0001:00001b90       ?settabss@?A0xd55f0479@@YGXPAUlua_State@@PBD1@Z 10002b90 f   luaglue.obj
 0001:00001ba0       ?settabsi@?A0xd55f0479@@YGXPAUlua_State@@PBDH@Z 10002ba0 f   luaglue.obj
 0001:00001bb0       ?getthread@?A0xd55f0479@@YGPAUlua_State@@PAU2@PAH@Z 10002bb0 f   luaglue.obj
 0001:00001bc0       ?treatstackoption@?A0xd55f0479@@YGXPAUlua_State@@0PBD@Z 10002bc0 f   luaglue.obj
 0001:00001bd0       ?db_getinfo@?A0xd55f0479@@YGHPAUlua_State@@@Z 10002bd0 f   luaglue.obj
 0001:00001be0       ?db_getlocal@?A0xd55f0479@@YGHPAUlua_State@@@Z 10002be0 f   luaglue.obj
 0001:00001bf0       ?db_setlocal@?A0xd55f0479@@YGHPAUlua_State@@@Z 10002bf0 f   luaglue.obj
 0001:00001c00       ?auxupvalue@?A0xd55f0479@@YGHPAUlua_State@@H@Z 10002c00 f   luaglue.obj
 0001:00001c10       ?db_getupvalue@?A0xd55f0479@@YGHPAUlua_State@@@Z 10002c10 f   luaglue.obj
 0001:00001c20       ?db_setupvalue@?A0xd55f0479@@YGHPAUlua_State@@@Z 10002c20 f   luaglue.obj
 0001:00001c30       ?hookf@?A0xd55f0479@@YGXPAUlua_State@@PAUlua_Debug@@@Z 10002c30 f   luaglue.obj
 0001:00001c40       ?makemask@?A0xd55f0479@@YGHPBDH@Z 10002c40 f   luaglue.obj
 0001:00001c50       ?unmakemask@?A0xd55f0479@@YGPADHPAD@Z 10002c50 f   luaglue.obj
 0001:00001c60       ?gethooktable@?A0xd55f0479@@YGXPAUlua_State@@@Z 10002c60 f   luaglue.obj
 0001:00001c70       ?db_sethook@?A0xd55f0479@@YGHPAUlua_State@@@Z 10002c70 f   luaglue.obj
 0001:00001c80       ?db_gethook@?A0xd55f0479@@YGHPAUlua_State@@@Z 10002c80 f   luaglue.obj
 0001:00001c90       ?db_debug@?A0xd55f0479@@YGHPAUlua_State@@@Z 10002c90 f   luaglue.obj
 0001:00001ca0       ?db_errorfb@?A0xd55f0479@@YGHPAUlua_State@@@Z 10002ca0 f   luaglue.obj
 0001:00001cb0       ?luaopen_debug@@YGHPAUlua_State@@@Z 10002cb0 f   luaglue.obj
 0001:00001cc0       ?currentpc@?A0xd55f0479@@YGHPAUlua_State@@PAUCallInfo@@@Z 10002cc0 f   luaglue.obj
 0001:00001cd0       ?currentline@?A0xd55f0479@@YGHPAUlua_State@@PAUCallInfo@@@Z 10002cd0 f   luaglue.obj
 0001:00001ce0       ?lua_sethook@@YGHPAUlua_State@@P6GX0PAUlua_Debug@@@ZHH@Z 10002ce0 f   luaglue.obj
 0001:00001cf0       ?lua_gethook@@YGP6GXPAUlua_State@@PAUlua_Debug@@@Z0@Z 10002cf0 f   luaglue.obj
 0001:00001d00       ?lua_gethookmask@@YGHPAUlua_State@@@Z 10002d00 f   luaglue.obj
 0001:00001d10       ?lua_gethookcount@@YGHPAUlua_State@@@Z 10002d10 f   luaglue.obj
 0001:00001d20       ?lua_getstack@@YGHPAUlua_State@@HPAUlua_Debug@@@Z 10002d20 f   luaglue.obj
 0001:00001d30       ?getluaproto@?A0xd55f0479@@YGPAUProto@@PAUCallInfo@@@Z 10002d30 f   luaglue.obj
 0001:00001d40       ?findlocal@?A0xd55f0479@@YGPBDPAUlua_State@@PAUCallInfo@@H@Z 10002d40 f   luaglue.obj
 0001:00001d50       ?lua_getlocal@@YGPBDPAUlua_State@@PBUlua_Debug@@H@Z 10002d50 f   luaglue.obj
 0001:00001d60       ?lua_setlocal@@YGPBDPAUlua_State@@PBUlua_Debug@@H@Z 10002d60 f   luaglue.obj
 0001:00001d70       ?funcinfo@?A0xd55f0479@@YGXPAUlua_Debug@@PATClosure@@@Z 10002d70 f   luaglue.obj
 0001:00001d80       ?info_tailcall@?A0xd55f0479@@YGXPAUlua_Debug@@@Z 10002d80 f   luaglue.obj
 0001:00001d90       ?collectvalidlines@?A0xd55f0479@@YGXPAUlua_State@@PATClosure@@@Z 10002d90 f   luaglue.obj
 0001:00001da0       ?auxgetinfo@?A0xd55f0479@@YGHPAUlua_State@@PBDPAUlua_Debug@@PATClosure@@PAUCallInfo@@@Z 10002da0 f   luaglue.obj
 0001:00001db0       ?lua_getinfo@@YGHPAUlua_State@@PBDPAUlua_Debug@@@Z 10002db0 f   luaglue.obj
 0001:00001dc0       ?precheck@?A0xd55f0479@@YGHPBUProto@@@Z 10002dc0 f   luaglue.obj
 0001:00001dd0       ?luaG_checkopenop@@YGHI@Z  10002dd0 f   luaglue.obj
 0001:00001de0       ?checkArgMode@?A0xd55f0479@@YGHPBUProto@@HW4OpArgMask@@@Z 10002de0 f   luaglue.obj
 0001:00001df0       ?symbexec@?A0xd55f0479@@YGIPBUProto@@HH@Z 10002df0 f   luaglue.obj
 0001:00001e00       ?luaG_checkcode@@YGHPBUProto@@@Z 10002e00 f   luaglue.obj
 0001:00001e10       ?kname@?A0xd55f0479@@YGPBDPAUProto@@H@Z 10002e10 f   luaglue.obj
 0001:00001e20       ?getobjname@?A0xd55f0479@@YGPBDPAUlua_State@@PAUCallInfo@@HPAPBD@Z 10002e20 f   luaglue.obj
 0001:00001e30       ?getfuncname@?A0xd55f0479@@YGPBDPAUlua_State@@PAUCallInfo@@PAPBD@Z 10002e30 f   luaglue.obj
 0001:00001e40       ?isinstack@?A0xd55f0479@@YGHPAUCallInfo@@PBUlua_TValue@@@Z 10002e40 f   luaglue.obj
 0001:00001e50       ?luaG_typeerror@@YGXPAUlua_State@@PBUlua_TValue@@PBD@Z 10002e50 f   luaglue.obj
 0001:00001e60       ?luaG_concaterror@@YGXPAUlua_State@@PAUlua_TValue@@1@Z 10002e60 f   luaglue.obj
 0001:00001e70       ?luaG_aritherror@@YGXPAUlua_State@@PBUlua_TValue@@1@Z 10002e70 f   luaglue.obj
 0001:00001e80       ?luaG_ordererror@@YGHPAUlua_State@@PBUlua_TValue@@1@Z 10002e80 f   luaglue.obj
 0001:00001e90       ?addinfo@?A0xd55f0479@@YGXPAUlua_State@@PBD@Z 10002e90 f   luaglue.obj
 0001:00001ea0       ?luaG_errormsg@@YGXPAUlua_State@@@Z 10002ea0 f   luaglue.obj
 0001:00001eb0       ?luaD_seterrorobj@@YGXPAUlua_State@@HPAUlua_TValue@@@Z 10002eb0 f   luaglue.obj
 0001:00001ec0       ?restore_stack_limit@?A0xd55f0479@@YGXPAUlua_State@@@Z 10002ec0 f   luaglue.obj
 0001:00001ed0       ?resetstack@?A0xd55f0479@@YGXPAUlua_State@@H@Z 10002ed0 f   luaglue.obj
 0001:00001ee0       ?luaD_throw@@YGXPAUlua_State@@H@Z 10002ee0 f   luaglue.obj
 0001:00001ef0       ?luaD_rawrunprotected@@YGHPAUlua_State@@P6GX0PAX@Z1@Z 10002ef0 f   luaglue.obj
 0001:00001f00       ?correctstack@?A0xd55f0479@@YGXPAUlua_State@@PAUlua_TValue@@@Z 10002f00 f   luaglue.obj
 0001:00001f10       ?luaD_reallocstack@@YGXPAUlua_State@@H@Z 10002f10 f   luaglue.obj
 0001:00001f20       ?luaD_reallocCI@@YGXPAUlua_State@@H@Z 10002f20 f   luaglue.obj
 0001:00001f30       ?luaD_growstack@@YGXPAUlua_State@@H@Z 10002f30 f   luaglue.obj
 0001:00001f40       ?growCI@?A0xd55f0479@@YGPAUCallInfo@@PAUlua_State@@@Z 10002f40 f   luaglue.obj
 0001:00001f50       ?luaD_callhook@@YGXPAUlua_State@@HH@Z 10002f50 f   luaglue.obj
 0001:00001f60       ?adjust_varargs@?A0xd55f0479@@YGPAUlua_TValue@@PAUlua_State@@PAUProto@@H@Z 10002f60 f   luaglue.obj
 0001:00001f70       ?tryfuncTM@?A0xd55f0479@@YGPAUlua_TValue@@PAUlua_State@@PAU2@@Z 10002f70 f   luaglue.obj
 0001:00001f80       ?luaD_precall@@YGHPAUlua_State@@PAUlua_TValue@@H@Z 10002f80 f   luaglue.obj
 0001:00001f90       ?callrethooks@?A0xd55f0479@@YGPAUlua_TValue@@PAUlua_State@@PAU2@@Z 10002f90 f   luaglue.obj
 0001:00001fa0       ?luaD_poscall@@YGHPAUlua_State@@PAUlua_TValue@@@Z 10002fa0 f   luaglue.obj
 0001:00001fb0       ?luaD_call@@YGXPAUlua_State@@PAUlua_TValue@@H@Z 10002fb0 f   luaglue.obj
 0001:00001fc0       ?resume@?A0xd55f0479@@YGXPAUlua_State@@PAX@Z 10002fc0 f   luaglue.obj
 0001:00001fd0       ?resume_error@?A0xd55f0479@@YGHPAUlua_State@@PBD@Z 10002fd0 f   luaglue.obj
 0001:00001fe0       ?lua_resume@@YGHPAUlua_State@@H@Z 10002fe0 f   luaglue.obj
 0001:00001ff0       ?lua_yield@@YGHPAUlua_State@@H@Z 10002ff0 f   luaglue.obj
 0001:00002000       ?luaD_pcall@@YGHPAUlua_State@@P6GX0PAX@Z1HH@Z 10003000 f   luaglue.obj
 0001:00002010       ?f_parser@?A0xd55f0479@@YGXPAUlua_State@@PAX@Z 10003010 f   luaglue.obj
 0001:00002020       ?luaD_protectedparser@@YGHPAUlua_State@@PAUZio@@PBD@Z 10003020 f   luaglue.obj
 0001:00002030       ?DumpBlock@?A0xd55f0479@@YGXPBXIPAUDumpState@@@Z 10003030 f   luaglue.obj
 0001:00002040       ?DumpChar@?A0xd55f0479@@YGXHPAUDumpState@@@Z 10003040 f   luaglue.obj
 0001:00002050       ?DumpInt@?A0xd55f0479@@YGXHPAUDumpState@@@Z 10003050 f   luaglue.obj
 0001:00002060       ?DumpNumber@?A0xd55f0479@@YGXNPAUDumpState@@@Z 10003060 f   luaglue.obj
 0001:00002070       ?DumpVector@?A0xd55f0479@@YGXPBXHIPAUDumpState@@@Z 10003070 f   luaglue.obj
 0001:00002080       ?DumpString@?A0xd55f0479@@YGXPBTTString@@PAUDumpState@@@Z 10003080 f   luaglue.obj
 0001:00002090       ?DumpConstants@?A0xd55f0479@@YGXPBUProto@@PAUDumpState@@@Z 10003090 f   luaglue.obj
 0001:000020a0       ?DumpDebug@?A0xd55f0479@@YGXPBUProto@@PAUDumpState@@@Z 100030a0 f   luaglue.obj
 0001:000020b0       ?DumpFunction@?A0xd55f0479@@YGXPBUProto@@PBTTString@@PAUDumpState@@@Z 100030b0 f   luaglue.obj
 0001:000020c0       ?DumpHeader@?A0xd55f0479@@YGXPAUDumpState@@@Z 100030c0 f   luaglue.obj
 0001:000020d0       ?luaU_dump@@YGHPAUlua_State@@PBUProto@@P6GH0PBXIPAX@Z3H@Z 100030d0 f   luaglue.obj
 0001:000020e0       ?luaF_newCclosure@@YGPATClosure@@PAUlua_State@@HPAUTable@@@Z 100030e0 f   luaglue.obj
 0001:000020f0       ?luaF_newLclosure@@YGPATClosure@@PAUlua_State@@HPAUTable@@@Z 100030f0 f   luaglue.obj
 0001:00002100       ?luaF_newupval@@YGPAUUpVal@@PAUlua_State@@@Z 10003100 f   luaglue.obj
 0001:00002110       ?luaF_findupval@@YGPAUUpVal@@PAUlua_State@@PAUlua_TValue@@@Z 10003110 f   luaglue.obj
 0001:00002120       ?unlinkupval@?A0xd55f0479@@YGXPAUUpVal@@@Z 10003120 f   luaglue.obj
 0001:00002130       ?luaF_freeupval@@YGXPAUlua_State@@PAUUpVal@@@Z 10003130 f   luaglue.obj
 0001:00002140       ?luaF_close@@YGXPAUlua_State@@PAUlua_TValue@@@Z 10003140 f   luaglue.obj
 0001:00002150       ?luaF_newproto@@YGPAUProto@@PAUlua_State@@@Z 10003150 f   luaglue.obj
 0001:00002160       ?luaF_freeproto@@YGXPAUlua_State@@PAUProto@@@Z 10003160 f   luaglue.obj
 0001:00002170       ?luaF_freeclosure@@YGXPAUlua_State@@PATClosure@@@Z 10003170 f   luaglue.obj
 0001:00002180       ?luaF_getlocalname@@YGPBDPBUProto@@HH@Z 10003180 f   luaglue.obj
 0001:00002190       ?removeentry@?A0xd55f0479@@YGXPAUNode@@@Z 10003190 f   luaglue.obj
 0001:000021a0       ?reallymarkobject@?A0xd55f0479@@YGXPAUglobal_State@@PATGCObject@@@Z 100031a0 f   luaglue.obj
 0001:000021b0       ?marktmu@?A0xd55f0479@@YGXPAUglobal_State@@@Z 100031b0 f   luaglue.obj
 0001:000021c0       ?luaC_separateudata@@YGIPAUlua_State@@H@Z 100031c0 f   luaglue.obj
 0001:000021d0       ?traversetable@?A0xd55f0479@@YGHPAUglobal_State@@PAUTable@@@Z 100031d0 f   luaglue.obj
 0001:000021e0       ?traverseproto@?A0xd55f0479@@YGXPAUglobal_State@@PAUProto@@@Z 100031e0 f   luaglue.obj
 0001:000021f0       ?traverseclosure@?A0xd55f0479@@YGXPAUglobal_State@@PATClosure@@@Z 100031f0 f   luaglue.obj
 0001:00002200       ?checkstacksizes@?A0xd55f0479@@YGXPAUlua_State@@PAUlua_TValue@@@Z 10003200 f   luaglue.obj
 0001:00002210       ?traversestack@?A0xd55f0479@@YGXPAUglobal_State@@PAUlua_State@@@Z 10003210 f   luaglue.obj
 0001:00002220       ?propagatemark@?A0xd55f0479@@YGHPAUglobal_State@@@Z 10003220 f   luaglue.obj
 0001:00002230       ?propagateall@?A0xd55f0479@@YGIPAUglobal_State@@@Z 10003230 f   luaglue.obj
 0001:00002240       ?iscleared@?A0xd55f0479@@YGHPBUlua_TValue@@H@Z 10003240 f   luaglue.obj
 0001:00002250       ?cleartable@?A0xd55f0479@@YGXPATGCObject@@@Z 10003250 f   luaglue.obj
 0001:00002260       ?freeobj@?A0xd55f0479@@YGXPAUlua_State@@PATGCObject@@@Z 10003260 f   luaglue.obj
 0001:00002270       ?sweeplist@?A0xd55f0479@@YGPAPATGCObject@@PAUlua_State@@PAPAT2@I@Z 10003270 f   luaglue.obj
 0001:00002280       ?checkSizes@?A0xd55f0479@@YGXPAUlua_State@@@Z 10003280 f   luaglue.obj
 0001:00002290       ?GCTM@?A0xd55f0479@@YGXPAUlua_State@@@Z 10003290 f   luaglue.obj
 0001:000022a0       ?luaC_callGCTM@@YGXPAUlua_State@@@Z 100032a0 f   luaglue.obj
 0001:000022b0       ?luaC_freeall@@YGXPAUlua_State@@@Z 100032b0 f   luaglue.obj
 0001:000022c0       ?markmt@?A0xd55f0479@@YGXPAUglobal_State@@@Z 100032c0 f   luaglue.obj
 0001:000022d0       ?markroot@?A0xd55f0479@@YGXPAUlua_State@@@Z 100032d0 f   luaglue.obj
 0001:000022e0       ?remarkupvals@?A0xd55f0479@@YGXPAUglobal_State@@@Z 100032e0 f   luaglue.obj
 0001:000022f0       ?atomic@?A0xd55f0479@@YGXPAUlua_State@@@Z 100032f0 f   luaglue.obj
 0001:00002300       ?singlestep@?A0xd55f0479@@YGHPAUlua_State@@@Z 10003300 f   luaglue.obj
 0001:00002310       ?luaC_step@@YGXPAUlua_State@@@Z 10003310 f   luaglue.obj
 0001:00002320       ?luaC_fullgc@@YGXPAUlua_State@@@Z 10003320 f   luaglue.obj
 0001:00002330       ?luaC_barrierf@@YGXPAUlua_State@@PATGCObject@@1@Z 10003330 f   luaglue.obj
 0001:00002340       ?luaC_barrierback@@YGXPAUlua_State@@PAUTable@@@Z 10003340 f   luaglue.obj
 0001:00002350       ?luaC_link@@YGXPAUlua_State@@PATGCObject@@E@Z 10003350 f   luaglue.obj
 0001:00002360       ?luaC_linkupval@@YGXPAUlua_State@@PAUUpVal@@@Z 10003360 f   luaglue.obj
 0001:00002370       ?luaL_openlibs@@YGXPAUlua_State@@@Z 10003370 f   luaglue.obj
 0001:00002380       ?pushresult@?A0xd55f0479@@YGHPAUlua_State@@HPBD@Z 10003380 f   luaglue.obj
 0001:00002390       ?fileerror@?A0xd55f0479@@YGXPAUlua_State@@HPBD@Z 10003390 f   luaglue.obj
 0001:000023a0       ?io_type@?A0xd55f0479@@YGHPAUlua_State@@@Z 100033a0 f   luaglue.obj
 0001:000023b0       ?tofile@?A0xd55f0479@@YGPAU_iobuf@@PAUlua_State@@@Z 100033b0 f   luaglue.obj
 0001:000023c0       ?newfile@?A0xd55f0479@@YGPAPAU_iobuf@@PAUlua_State@@@Z 100033c0 f   luaglue.obj
 0001:000023d0       ?io_noclose@?A0xd55f0479@@YGHPAUlua_State@@@Z 100033d0 f   luaglue.obj
 0001:000023e0       ?io_pclose@?A0xd55f0479@@YGHPAUlua_State@@@Z 100033e0 f   luaglue.obj
 0001:000023f0       ?io_fclose@?A0xd55f0479@@YGHPAUlua_State@@@Z 100033f0 f   luaglue.obj
 0001:00002400       ?aux_close@?A0xd55f0479@@YGHPAUlua_State@@@Z 10003400 f   luaglue.obj
 0001:00002410       ?io_close@?A0xd55f0479@@YGHPAUlua_State@@@Z 10003410 f   luaglue.obj
 0001:00002420       ?io_gc@?A0xd55f0479@@YGHPAUlua_State@@@Z 10003420 f   luaglue.obj
 0001:00002430       ?io_tostring@?A0xd55f0479@@YGHPAUlua_State@@@Z 10003430 f   luaglue.obj
 0001:00002440       ?io_open@?A0xd55f0479@@YGHPAUlua_State@@@Z 10003440 f   luaglue.obj
 0001:00002450       ?io_popen@?A0xd55f0479@@YGHPAUlua_State@@@Z 10003450 f   luaglue.obj
 0001:00002460       ?io_tmpfile@?A0xd55f0479@@YGHPAUlua_State@@@Z 10003460 f   luaglue.obj
 0001:00002470       ?getiofile@?A0xd55f0479@@YGPAU_iobuf@@PAUlua_State@@H@Z 10003470 f   luaglue.obj
 0001:00002480       ?g_iofile@?A0xd55f0479@@YGHPAUlua_State@@HPBD@Z 10003480 f   luaglue.obj
 0001:00002490       ?io_input@?A0xd55f0479@@YGHPAUlua_State@@@Z 10003490 f   luaglue.obj
 0001:000024a0       ?io_output@?A0xd55f0479@@YGHPAUlua_State@@@Z 100034a0 f   luaglue.obj
 0001:000024b0       ?aux_lines@?A0xd55f0479@@YGXPAUlua_State@@HH@Z 100034b0 f   luaglue.obj
 0001:000024c0       ?f_lines@?A0xd55f0479@@YGHPAUlua_State@@@Z 100034c0 f   luaglue.obj
 0001:000024d0       ?io_lines@?A0xd55f0479@@YGHPAUlua_State@@@Z 100034d0 f   luaglue.obj
 0001:000024e0       ?read_number@?A0xd55f0479@@YGHPAUlua_State@@PAU_iobuf@@@Z 100034e0 f   luaglue.obj
 0001:000024f0       ?test_eof@?A0xd55f0479@@YGHPAUlua_State@@PAU_iobuf@@@Z 100034f0 f   luaglue.obj
 0001:00002500       ?read_line@?A0xd55f0479@@YGHPAUlua_State@@PAU_iobuf@@@Z 10003500 f   luaglue.obj
 0001:00002510       ?read_chars@?A0xd55f0479@@YGHPAUlua_State@@PAU_iobuf@@I@Z 10003510 f   luaglue.obj
 0001:00002520       ?g_read@?A0xd55f0479@@YGHPAUlua_State@@PAU_iobuf@@H@Z 10003520 f   luaglue.obj
 0001:00002530       ?io_read@?A0xd55f0479@@YGHPAUlua_State@@@Z 10003530 f   luaglue.obj
 0001:00002540       ?f_read@?A0xd55f0479@@YGHPAUlua_State@@@Z 10003540 f   luaglue.obj
 0001:00002550       ?io_readline@?A0xd55f0479@@YGHPAUlua_State@@@Z 10003550 f   luaglue.obj
 0001:00002560       ?g_write@?A0xd55f0479@@YGHPAUlua_State@@PAU_iobuf@@H@Z 10003560 f   luaglue.obj
 0001:00002570       ?io_write@?A0xd55f0479@@YGHPAUlua_State@@@Z 10003570 f   luaglue.obj
 0001:00002580       ?f_write@?A0xd55f0479@@YGHPAUlua_State@@@Z 10003580 f   luaglue.obj
 0001:00002590       ?f_seek@?A0xd55f0479@@YGHPAUlua_State@@@Z 10003590 f   luaglue.obj
 0001:000025a0       ?f_setvbuf@?A0xd55f0479@@YGHPAUlua_State@@@Z 100035a0 f   luaglue.obj
 0001:000025b0       ?io_flush@?A0xd55f0479@@YGHPAUlua_State@@@Z 100035b0 f   luaglue.obj
 0001:000025c0       ?f_flush@?A0xd55f0479@@YGHPAUlua_State@@@Z 100035c0 f   luaglue.obj
 0001:000025d0       ?createmeta@?A0xd55f0479@@YGXPAUlua_State@@@Z 100035d0 f   luaglue.obj
 0001:000025e0       ?createstdfile@?A0xd55f0479@@YGXPAUlua_State@@PAU_iobuf@@HPBD@Z 100035e0 f   luaglue.obj
 0001:000025f0       ?newfenv@?A0xd55f0479@@YGXPAUlua_State@@P6GH0@Z@Z 100035f0 f   luaglue.obj
 0001:00002600       ?luaopen_io@@YGHPAUlua_State@@@Z 10003600 f   luaglue.obj
 0001:00002610       ?save@?A0xd55f0479@@YGXPAULexState@@H@Z 10003610 f   luaglue.obj
 0001:00002620       ?luaX_init@@YGXPAUlua_State@@@Z 10003620 f   luaglue.obj
 0001:00002630       ?luaX_token2str@@YGPBDPAULexState@@H@Z 10003630 f   luaglue.obj
 0001:00002640       ?txtToken@?A0xd55f0479@@YGPBDPAULexState@@H@Z 10003640 f   luaglue.obj
 0001:00002650       ?luaX_lexerror@@YGXPAULexState@@PBDH@Z 10003650 f   luaglue.obj
 0001:00002660       ?luaX_syntaxerror@@YGXPAULexState@@PBD@Z 10003660 f   luaglue.obj
 0001:00002670       ?luaX_newstring@@YGPATTString@@PAULexState@@PBDI@Z 10003670 f   luaglue.obj
 0001:00002680       ?inclinenumber@?A0xd55f0479@@YGXPAULexState@@@Z 10003680 f   luaglue.obj
 0001:00002690       ?luaX_setinput@@YGXPAUlua_State@@PAULexState@@PAUZio@@PATTString@@@Z 10003690 f   luaglue.obj
 0001:000026a0       ?check_next@?A0xd55f0479@@YGHPAULexState@@PBD@Z 100036a0 f   luaglue.obj
 0001:000026b0       ?buffreplace@?A0xd55f0479@@YGXPAULexState@@DD@Z 100036b0 f   luaglue.obj
 0001:000026c0       ?trydecpoint@?A0xd55f0479@@YGXPAULexState@@PATSemInfo@@@Z 100036c0 f   luaglue.obj
 0001:000026d0       ?read_numeral@?A0xd55f0479@@YGXPAULexState@@PATSemInfo@@@Z 100036d0 f   luaglue.obj
 0001:000026e0       ?skip_sep@?A0xd55f0479@@YGHPAULexState@@@Z 100036e0 f   luaglue.obj
 0001:000026f0       ?read_long_string@?A0xd55f0479@@YGXPAULexState@@PATSemInfo@@H@Z 100036f0 f   luaglue.obj
 0001:00002700       ?read_string@?A0xd55f0479@@YGXPAULexState@@HPATSemInfo@@@Z 10003700 f   luaglue.obj
 0001:00002710       ?llex@?A0xd55f0479@@YGHPAULexState@@PATSemInfo@@@Z 10003710 f   luaglue.obj
 0001:00002720       ?luaX_next@@YGXPAULexState@@@Z 10003720 f   luaglue.obj
 0001:00002730       ?luaX_lookahead@@YGXPAULexState@@@Z 10003730 f   luaglue.obj
 0001:00002740       ?math_abs@?A0xd55f0479@@YGHPAUlua_State@@@Z 10003740 f   luaglue.obj
 0001:00002750       ?math_sin@?A0xd55f0479@@YGHPAUlua_State@@@Z 10003750 f   luaglue.obj
 0001:00002760       ?math_sinh@?A0xd55f0479@@YGHPAUlua_State@@@Z 10003760 f   luaglue.obj
 0001:00002770       ?math_cos@?A0xd55f0479@@YGHPAUlua_State@@@Z 10003770 f   luaglue.obj
 0001:00002780       ?math_cosh@?A0xd55f0479@@YGHPAUlua_State@@@Z 10003780 f   luaglue.obj
 0001:00002790       ?math_tan@?A0xd55f0479@@YGHPAUlua_State@@@Z 10003790 f   luaglue.obj
 0001:000027a0       ?math_tanh@?A0xd55f0479@@YGHPAUlua_State@@@Z 100037a0 f   luaglue.obj
 0001:000027b0       ?math_asin@?A0xd55f0479@@YGHPAUlua_State@@@Z 100037b0 f   luaglue.obj
 0001:000027c0       ?math_acos@?A0xd55f0479@@YGHPAUlua_State@@@Z 100037c0 f   luaglue.obj
 0001:000027d0       ?math_atan@?A0xd55f0479@@YGHPAUlua_State@@@Z 100037d0 f   luaglue.obj
 0001:000027e0       ?math_atan2@?A0xd55f0479@@YGHPAUlua_State@@@Z 100037e0 f   luaglue.obj
 0001:000027f0       ?math_ceil@?A0xd55f0479@@YGHPAUlua_State@@@Z 100037f0 f   luaglue.obj
 0001:00002800       ?math_floor@?A0xd55f0479@@YGHPAUlua_State@@@Z 10003800 f   luaglue.obj
 0001:00002810       ?math_fmod@?A0xd55f0479@@YGHPAUlua_State@@@Z 10003810 f   luaglue.obj
 0001:00002820       ?math_modf@?A0xd55f0479@@YGHPAUlua_State@@@Z 10003820 f   luaglue.obj
 0001:00002830       ?math_sqrt@?A0xd55f0479@@YGHPAUlua_State@@@Z 10003830 f   luaglue.obj
 0001:00002840       ?math_pow@?A0xd55f0479@@YGHPAUlua_State@@@Z 10003840 f   luaglue.obj
 0001:00002850       ?math_log@?A0xd55f0479@@YGHPAUlua_State@@@Z 10003850 f   luaglue.obj
 0001:00002860       ?math_log10@?A0xd55f0479@@YGHPAUlua_State@@@Z 10003860 f   luaglue.obj
 0001:00002870       ?math_exp@?A0xd55f0479@@YGHPAUlua_State@@@Z 10003870 f   luaglue.obj
 0001:00002880       ?math_deg@?A0xd55f0479@@YGHPAUlua_State@@@Z 10003880 f   luaglue.obj
 0001:00002890       ?math_rad@?A0xd55f0479@@YGHPAUlua_State@@@Z 10003890 f   luaglue.obj
 0001:000028a0       ?math_frexp@?A0xd55f0479@@YGHPAUlua_State@@@Z 100038a0 f   luaglue.obj
 0001:000028b0       ?math_ldexp@?A0xd55f0479@@YGHPAUlua_State@@@Z 100038b0 f   luaglue.obj
 0001:000028c0       ?math_min@?A0xd55f0479@@YGHPAUlua_State@@@Z 100038c0 f   luaglue.obj
 0001:000028d0       ?math_max@?A0xd55f0479@@YGHPAUlua_State@@@Z 100038d0 f   luaglue.obj
 0001:000028e0       ?math_random@?A0xd55f0479@@YGHPAUlua_State@@@Z 100038e0 f   luaglue.obj
 0001:000028f0       ?math_randomseed@?A0xd55f0479@@YGHPAUlua_State@@@Z 100038f0 f   luaglue.obj
 0001:00002900       ?luaopen_math@@YGHPAUlua_State@@@Z 10003900 f   luaglue.obj
 0001:00002910       ?luaM_growaux_@@YGPAXPAUlua_State@@PAXPAHIHPBD@Z 10003910 f   luaglue.obj
 0001:00002920       ?luaM_toobig@@YGPAXPAUlua_State@@@Z 10003920 f   luaglue.obj
 0001:00002930       ?luaM_realloc_@@YGPAXPAUlua_State@@PAXII@Z 10003930 f   luaglue.obj
 0001:00002940       ?setprogdir@?A0xd55f0479@@YGXPAUlua_State@@@Z 10003940 f   luaglue.obj
 0001:00002950       ?pusherror@?A0xd55f0479@@YGXPAUlua_State@@@Z 10003950 f   luaglue.obj
 0001:00002960       ?ll_unloadlib@?A0xd55f0479@@YGXPAX@Z 10003960 f   luaglue.obj
 0001:00002970       ?ll_load@?A0xd55f0479@@YGPAXPAUlua_State@@PBD@Z 10003970 f   luaglue.obj
 0001:00002980       ?ll_sym@?A0xd55f0479@@YGP6GHPAUlua_State@@@Z0PAXPBD@Z 10003980 f   luaglue.obj
 0001:00002990       ?ll_register@?A0xd55f0479@@YGPAPAXPAUlua_State@@PBD@Z 10003990 f   luaglue.obj
 0001:000029a0       ?gctm@?A0xd55f0479@@YGHPAUlua_State@@@Z 100039a0 f   luaglue.obj
 0001:000029b0       ?ll_loadfunc@?A0xd55f0479@@YGHPAUlua_State@@PBD1@Z 100039b0 f   luaglue.obj
 0001:000029c0       ?ll_loadlib@?A0xd55f0479@@YGHPAUlua_State@@@Z 100039c0 f   luaglue.obj
 0001:000029d0       ?readable@?A0xd55f0479@@YGHPBD@Z 100039d0 f   luaglue.obj
 0001:000029e0       ?pushnexttemplate@?A0xd55f0479@@YGPBDPAUlua_State@@PBD@Z 100039e0 f   luaglue.obj
 0001:000029f0       ?findfile@?A0xd55f0479@@YGPBDPAUlua_State@@PBD1@Z 100039f0 f   luaglue.obj
 0001:00002a00       ?loaderror@?A0xd55f0479@@YGXPAUlua_State@@PBD@Z 10003a00 f   luaglue.obj
 0001:00002a10       ?loader_Lua@?A0xd55f0479@@YGHPAUlua_State@@@Z 10003a10 f   luaglue.obj
 0001:00002a20       ?mkfuncname@?A0xd55f0479@@YGPBDPAUlua_State@@PBD@Z 10003a20 f   luaglue.obj
 0001:00002a30       ?loader_C@?A0xd55f0479@@YGHPAUlua_State@@@Z 10003a30 f   luaglue.obj
 0001:00002a40       ?loader_Croot@?A0xd55f0479@@YGHPAUlua_State@@@Z 10003a40 f   luaglue.obj
 0001:00002a50       ?loader_preload@?A0xd55f0479@@YGHPAUlua_State@@@Z 10003a50 f   luaglue.obj
 0001:00002a60       ?ll_require@?A0xd55f0479@@YGHPAUlua_State@@@Z 10003a60 f   luaglue.obj
 0001:00002a70       ?setfenv@?A0xd55f0479@@YGXPAUlua_State@@@Z 10003a70 f   luaglue.obj
 0001:00002a80       ?dooptions@?A0xd55f0479@@YGXPAUlua_State@@H@Z 10003a80 f   luaglue.obj
 0001:00002a90       ?modinit@?A0xd55f0479@@YGXPAUlua_State@@PBD@Z 10003a90 f   luaglue.obj
 0001:00002aa0       ?ll_module@?A0xd55f0479@@YGHPAUlua_State@@@Z 10003aa0 f   luaglue.obj
 0001:00002ab0       ?ll_seeall@?A0xd55f0479@@YGHPAUlua_State@@@Z 10003ab0 f   luaglue.obj
 0001:00002ac0       ?setpath@?A0xd55f0479@@YGXPAUlua_State@@PBD11@Z 10003ac0 f   luaglue.obj
 0001:00002ad0       ?luaopen_package@@YGHPAUlua_State@@@Z 10003ad0 f   luaglue.obj
 0001:00002ae0       ?luaO_int2fb@@YGHI@Z       10003ae0 f   luaglue.obj
 0001:00002af0       ?luaO_fb2int@@YGHH@Z       10003af0 f   luaglue.obj
 0001:00002b00       ?luaO_log2@@YGHI@Z         10003b00 f   luaglue.obj
 0001:00002b10       ?luaO_rawequalObj@@YGHPBUlua_TValue@@0@Z 10003b10 f   luaglue.obj
 0001:00002b20       ?luaO_str2d@@YGHPBDPAN@Z   10003b20 f   luaglue.obj
 0001:00002b30       ?pushstr@?A0xd55f0479@@YGXPAUlua_State@@PBD@Z 10003b30 f   luaglue.obj
 0001:00002b40       ?luaO_chunkid@@YGXPADPBDI@Z 10003b40 f   luaglue.obj
 0001:00002b50       _difftime@0xd55f0479       10003b50 f i luaglue.obj
 0001:00002b60       _gmtime@0xd55f0479         10003b60 f i luaglue.obj
 0001:00002b70       _localtime@0xd55f0479      10003b70 f i luaglue.obj
 0001:00002b80       _mktime@0xd55f0479         10003b80 f i luaglue.obj
 0001:00002b90       _time@0xd55f0479           10003b90 f i luaglue.obj
 0001:00002ba0       ?os_pushresult@?A0xd55f0479@@YGHPAUlua_State@@HPBD@Z 10003ba0 f   luaglue.obj
 0001:00002bb0       ?os_execute@?A0xd55f0479@@YGHPAUlua_State@@@Z 10003bb0 f   luaglue.obj
 0001:00002bc0       ?os_remove@?A0xd55f0479@@YGHPAUlua_State@@@Z 10003bc0 f   luaglue.obj
 0001:00002bd0       ?os_rename@?A0xd55f0479@@YGHPAUlua_State@@@Z 10003bd0 f   luaglue.obj
 0001:00002be0       ?os_tmpname@?A0xd55f0479@@YGHPAUlua_State@@@Z 10003be0 f   luaglue.obj
 0001:00002bf0       ?os_getenv@?A0xd55f0479@@YGHPAUlua_State@@@Z 10003bf0 f   luaglue.obj
 0001:00002c00       ?os_clock@?A0xd55f0479@@YGHPAUlua_State@@@Z 10003c00 f   luaglue.obj
 0001:00002c10       ?setfield@?A0xd55f0479@@YGXPAUlua_State@@PBDH@Z 10003c10 f   luaglue.obj
 0001:00002c20       ?setboolfield@?A0xd55f0479@@YGXPAUlua_State@@PBDH@Z 10003c20 f   luaglue.obj
 0001:00002c30       ?getboolfield@?A0xd55f0479@@YGHPAUlua_State@@PBD@Z 10003c30 f   luaglue.obj
 0001:00002c40       ?getfield@?A0xd55f0479@@YGHPAUlua_State@@PBDH@Z 10003c40 f   luaglue.obj
 0001:00002c50       ?os_date@?A0xd55f0479@@YGHPAUlua_State@@@Z 10003c50 f   luaglue.obj
 0001:00002c60       ?os_time@?A0xd55f0479@@YGHPAUlua_State@@@Z 10003c60 f   luaglue.obj
 0001:00002c70       ?os_difftime@?A0xd55f0479@@YGHPAUlua_State@@@Z 10003c70 f   luaglue.obj
 0001:00002c80       ?os_setlocale@?A0xd55f0479@@YGHPAUlua_State@@@Z 10003c80 f   luaglue.obj
 0001:00002c90       ?os_exit@?A0xd55f0479@@YGHPAUlua_State@@@Z 10003c90 f   luaglue.obj
 0001:00002ca0       ?luaopen_os@@YGHPAUlua_State@@@Z 10003ca0 f   luaglue.obj
 0001:00002cb0       ?anchor_token@?A0xd55f0479@@YGXPAULexState@@@Z 10003cb0 f   luaglue.obj
 0001:00002cc0       ?error_expected@?A0xd55f0479@@YGXPAULexState@@H@Z 10003cc0 f   luaglue.obj
 0001:00002cd0       ?errorlimit@?A0xd55f0479@@YGXPAUFuncState@@HPBD@Z 10003cd0 f   luaglue.obj
 0001:00002ce0       ?testnext@?A0xd55f0479@@YGHPAULexState@@H@Z 10003ce0 f   luaglue.obj
 0001:00002cf0       ?check@?A0xd55f0479@@YGXPAULexState@@H@Z 10003cf0 f   luaglue.obj
 0001:00002d00       ?checknext@?A0xd55f0479@@YGXPAULexState@@H@Z 10003d00 f   luaglue.obj
 0001:00002d10       ?check_match@?A0xd55f0479@@YGXPAULexState@@HHH@Z 10003d10 f   luaglue.obj
 0001:00002d20       ?str_checkname@?A0xd55f0479@@YGPATTString@@PAULexState@@@Z 10003d20 f   luaglue.obj
 0001:00002d30       ?init_exp@?A0xd55f0479@@YGXPAUexpdesc@@W4expkind@@H@Z 10003d30 f   luaglue.obj
 0001:00002d40       ?codestring@?A0xd55f0479@@YGXPAULexState@@PAUexpdesc@@PATTString@@@Z 10003d40 f   luaglue.obj
 0001:00002d50       ?checkname@?A0xd55f0479@@YGXPAULexState@@PAUexpdesc@@@Z 10003d50 f   luaglue.obj
 0001:00002d60       ?registerlocalvar@?A0xd55f0479@@YGHPAULexState@@PATTString@@@Z 10003d60 f   luaglue.obj
 0001:00002d70       ?new_localvar@?A0xd55f0479@@YGXPAULexState@@PATTString@@H@Z 10003d70 f   luaglue.obj
 0001:00002d80       ?adjustlocalvars@?A0xd55f0479@@YGXPAULexState@@H@Z 10003d80 f   luaglue.obj
 0001:00002d90       ?removevars@?A0xd55f0479@@YGXPAULexState@@H@Z 10003d90 f   luaglue.obj
 0001:00002da0       ?indexupvalue@?A0xd55f0479@@YGHPAUFuncState@@PATTString@@PAUexpdesc@@@Z 10003da0 f   luaglue.obj
 0001:00002db0       ?searchvar@?A0xd55f0479@@YGHPAUFuncState@@PATTString@@@Z 10003db0 f   luaglue.obj
 0001:00002dc0       ?markupval@?A0xd55f0479@@YGXPAUFuncState@@H@Z 10003dc0 f   luaglue.obj
 0001:00002dd0       ?singlevaraux@?A0xd55f0479@@YGHPAUFuncState@@PATTString@@PAUexpdesc@@H@Z 10003dd0 f   luaglue.obj
 0001:00002de0       ?singlevar@?A0xd55f0479@@YGXPAULexState@@PAUexpdesc@@@Z 10003de0 f   luaglue.obj
 0001:00002df0       ?adjust_assign@?A0xd55f0479@@YGXPAULexState@@HHPAUexpdesc@@@Z 10003df0 f   luaglue.obj
 0001:00002e00       ?enterlevel@?A0xd55f0479@@YGXPAULexState@@@Z 10003e00 f   luaglue.obj
 0001:00002e10       ?enterblock@?A0xd55f0479@@YGXPAUFuncState@@PAUBlockCnt@@E@Z 10003e10 f   luaglue.obj
 0001:00002e20       ?leaveblock@?A0xd55f0479@@YGXPAUFuncState@@@Z 10003e20 f   luaglue.obj
 0001:00002e30       ?pushclosure@?A0xd55f0479@@YGXPAULexState@@PAUFuncState@@PAUexpdesc@@@Z 10003e30 f   luaglue.obj
 0001:00002e40       ?open_func@?A0xd55f0479@@YGXPAULexState@@PAUFuncState@@@Z 10003e40 f   luaglue.obj
 0001:00002e50       ?close_func@?A0xd55f0479@@YGXPAULexState@@@Z 10003e50 f   luaglue.obj
 0001:00002e60       ?luaY_parser@@YGPAUProto@@PAUlua_State@@PAUZio@@PAUMbuffer@@PBD@Z 10003e60 f   luaglue.obj
 0001:00002e70       ?field@?A0xd55f0479@@YGXPAULexState@@PAUexpdesc@@@Z 10003e70 f   luaglue.obj
 0001:00002e80       ?yindex@?A0xd55f0479@@YGXPAULexState@@PAUexpdesc@@@Z 10003e80 f   luaglue.obj
 0001:00002e90       ?recfield@?A0xd55f0479@@YGXPAULexState@@PAUConsControl@@@Z 10003e90 f   luaglue.obj
 0001:00002ea0       ?closelistfield@?A0xd55f0479@@YGXPAUFuncState@@PAUConsControl@@@Z 10003ea0 f   luaglue.obj
 0001:00002eb0       ?lastlistfield@?A0xd55f0479@@YGXPAUFuncState@@PAUConsControl@@@Z 10003eb0 f   luaglue.obj
 0001:00002ec0       ?listfield@?A0xd55f0479@@YGXPAULexState@@PAUConsControl@@@Z 10003ec0 f   luaglue.obj
 0001:00002ed0       ?constructor@?A0xd55f0479@@YGXPAULexState@@PAUexpdesc@@@Z 10003ed0 f   luaglue.obj
 0001:00002ee0       ?parlist@?A0xd55f0479@@YGXPAULexState@@@Z 10003ee0 f   luaglue.obj
 0001:00002ef0       ?body@?A0xd55f0479@@YGXPAULexState@@PAUexpdesc@@HH@Z 10003ef0 f   luaglue.obj
 0001:00002f00       ?explist1@?A0xd55f0479@@YGHPAULexState@@PAUexpdesc@@@Z 10003f00 f   luaglue.obj
 0001:00002f10       ?funcargs@?A0xd55f0479@@YGXPAULexState@@PAUexpdesc@@@Z 10003f10 f   luaglue.obj
 0001:00002f20       ?prefixexp@?A0xd55f0479@@YGXPAULexState@@PAUexpdesc@@@Z 10003f20 f   luaglue.obj
 0001:00002f30       ?primaryexp@?A0xd55f0479@@YGXPAULexState@@PAUexpdesc@@@Z 10003f30 f   luaglue.obj
 0001:00002f40       ?simpleexp@?A0xd55f0479@@YGXPAULexState@@PAUexpdesc@@@Z 10003f40 f   luaglue.obj
 0001:00002f50       ?getunopr@?A0xd55f0479@@YG?AW4UnOpr@@H@Z 10003f50 f   luaglue.obj
 0001:00002f60       ?getbinopr@?A0xd55f0479@@YG?AW4BinOpr@@H@Z 10003f60 f   luaglue.obj
 0001:00002f70       ?subexpr@?A0xd55f0479@@YG?AW4BinOpr@@PAULexState@@PAUexpdesc@@I@Z 10003f70 f   luaglue.obj
 0001:00002f80       ?expr@?A0xd55f0479@@YGXPAULexState@@PAUexpdesc@@@Z 10003f80 f   luaglue.obj
 0001:00002f90       ?block_follow@?A0xd55f0479@@YGHH@Z 10003f90 f   luaglue.obj
 0001:00002fa0       ?block@?A0xd55f0479@@YGXPAULexState@@@Z 10003fa0 f   luaglue.obj
 0001:00002fb0       ?check_conflict@?A0xd55f0479@@YGXPAULexState@@PAULHS_assign@@PAUexpdesc@@@Z 10003fb0 f   luaglue.obj
 0001:00002fc0       ?assignment@?A0xd55f0479@@YGXPAULexState@@PAULHS_assign@@H@Z 10003fc0 f   luaglue.obj
 0001:00002fd0       ?cond@?A0xd55f0479@@YGHPAULexState@@@Z 10003fd0 f   luaglue.obj
 0001:00002fe0       ?breakstat@?A0xd55f0479@@YGXPAULexState@@@Z 10003fe0 f   luaglue.obj
 0001:00002ff0       ?whilestat@?A0xd55f0479@@YGXPAULexState@@H@Z 10003ff0 f   luaglue.obj
 0001:00003000       ?repeatstat@?A0xd55f0479@@YGXPAULexState@@H@Z 10004000 f   luaglue.obj
 0001:00003010       ?exp1@?A0xd55f0479@@YGHPAULexState@@@Z 10004010 f   luaglue.obj
 0001:00003020       ?forbody@?A0xd55f0479@@YGXPAULexState@@HHHH@Z 10004020 f   luaglue.obj
 0001:00003030       ?fornum@?A0xd55f0479@@YGXPAULexState@@PATTString@@H@Z 10004030 f   luaglue.obj
 0001:00003040       ?forlist@?A0xd55f0479@@YGXPAULexState@@PATTString@@@Z 10004040 f   luaglue.obj
 0001:00003050       ?forstat@?A0xd55f0479@@YGXPAULexState@@H@Z 10004050 f   luaglue.obj
 0001:00003060       ?test_then_block@?A0xd55f0479@@YGHPAULexState@@@Z 10004060 f   luaglue.obj
 0001:00003070       ?ifstat@?A0xd55f0479@@YGXPAULexState@@H@Z 10004070 f   luaglue.obj
 0001:00003080       ?localfunc@?A0xd55f0479@@YGXPAULexState@@@Z 10004080 f   luaglue.obj
 0001:00003090       ?localstat@?A0xd55f0479@@YGXPAULexState@@@Z 10004090 f   luaglue.obj
 0001:000030a0       ?funcname@?A0xd55f0479@@YGHPAULexState@@PAUexpdesc@@@Z 100040a0 f   luaglue.obj
 0001:000030b0       ?funcstat@?A0xd55f0479@@YGXPAULexState@@H@Z 100040b0 f   luaglue.obj
 0001:000030c0       ?exprstat@?A0xd55f0479@@YGXPAULexState@@@Z 100040c0 f   luaglue.obj
 0001:000030d0       ?retstat@?A0xd55f0479@@YGXPAULexState@@@Z 100040d0 f   luaglue.obj
 0001:000030e0       ?statement@?A0xd55f0479@@YGHPAULexState@@@Z 100040e0 f   luaglue.obj
 0001:000030f0       ?chunk@?A0xd55f0479@@YGXPAULexState@@@Z 100040f0 f   luaglue.obj
 0001:00003100       ?stack_init@?A0xd55f0479@@YGXPAUlua_State@@0@Z 10004100 f   luaglue.obj
 0001:00003110       ?freestack@?A0xd55f0479@@YGXPAUlua_State@@0@Z 10004110 f   luaglue.obj
 0001:00003120       ?f_luaopen@?A0xd55f0479@@YGXPAUlua_State@@PAX@Z 10004120 f   luaglue.obj
 0001:00003130       ?preinit_state@?A0xd55f0479@@YGXPAUlua_State@@PAUglobal_State@@@Z 10004130 f   luaglue.obj
 0001:00003140       ?close_state@?A0xd55f0479@@YGXPAUlua_State@@@Z 10004140 f   luaglue.obj
 0001:00003150       ?luaE_newthread@@YGPAUlua_State@@PAU1@@Z 10004150 f   luaglue.obj
 0001:00003160       ?luaE_freethread@@YGXPAUlua_State@@0@Z 10004160 f   luaglue.obj
 0001:00003170       ?lua_newstate@@YGPAUlua_State@@P6GPAXPAX0II@Z0@Z 10004170 f   luaglue.obj
 0001:00003180       ?callallgcTM@?A0xd55f0479@@YGXPAUlua_State@@PAX@Z 10004180 f   luaglue.obj
 0001:00003190       ?lua_close@@YGXPAUlua_State@@@Z 10004190 f   luaglue.obj
 0001:000031a0       ?luaS_resize@@YGXPAUlua_State@@H@Z 100041a0 f   luaglue.obj
 0001:000031b0       ?newlstr@?A0xd55f0479@@YGPATTString@@PAUlua_State@@PBDII@Z 100041b0 f   luaglue.obj
 0001:000031c0       ?luaS_newlstr@@YGPATTString@@PAUlua_State@@PBDI@Z 100041c0 f   luaglue.obj
 0001:000031d0       ?luaS_newudata@@YGPATUdata@@PAUlua_State@@IPAUTable@@@Z 100041d0 f   luaglue.obj
 0001:000031e0       ?str_len@?A0xd55f0479@@YGHPAUlua_State@@@Z 100041e0 f   luaglue.obj
 0001:000031f0       ?posrelat@?A0xd55f0479@@YGHHI@Z 100041f0 f   luaglue.obj
 0001:00003200       ?str_sub@?A0xd55f0479@@YGHPAUlua_State@@@Z 10004200 f   luaglue.obj
 0001:00003210       ?str_reverse@?A0xd55f0479@@YGHPAUlua_State@@@Z 10004210 f   luaglue.obj
 0001:00003220       ?str_lower@?A0xd55f0479@@YGHPAUlua_State@@@Z 10004220 f   luaglue.obj
 0001:00003230       ?str_upper@?A0xd55f0479@@YGHPAUlua_State@@@Z 10004230 f   luaglue.obj
 0001:00003240       ?str_rep@?A0xd55f0479@@YGHPAUlua_State@@@Z 10004240 f   luaglue.obj
 0001:00003250       ?str_byte@?A0xd55f0479@@YGHPAUlua_State@@@Z 10004250 f   luaglue.obj
 0001:00003260       ?str_char@?A0xd55f0479@@YGHPAUlua_State@@@Z 10004260 f   luaglue.obj
 0001:00003270       ?writer@?A0xd55f0479@@YGHPAUlua_State@@PBXIPAX@Z 10004270 f   luaglue.obj
 0001:00003280       ?str_dump@?A0xd55f0479@@YGHPAUlua_State@@@Z 10004280 f   luaglue.obj
 0001:00003290       ?check_capture@?A0xd55f0479@@YGHPAUMatchState@@H@Z 10004290 f   luaglue.obj
 0001:000032a0       ?capture_to_close@?A0xd55f0479@@YGHPAUMatchState@@@Z 100042a0 f   luaglue.obj
 0001:000032b0       ?classend@?A0xd55f0479@@YGPBDPAUMatchState@@PBD@Z 100042b0 f   luaglue.obj
 0001:000032c0       ?match_class@?A0xd55f0479@@YGHHH@Z 100042c0 f   luaglue.obj
 0001:000032d0       ?matchbracketclass@?A0xd55f0479@@YGHHPBD0@Z 100042d0 f   luaglue.obj
 0001:000032e0       ?singlematch@?A0xd55f0479@@YGHHPBD0@Z 100042e0 f   luaglue.obj
 0001:000032f0       ?matchbalance@?A0xd55f0479@@YGPBDPAUMatchState@@PBD1@Z 100042f0 f   luaglue.obj
 0001:00003300       ?max_expand@?A0xd55f0479@@YGPBDPAUMatchState@@PBD11@Z 10004300 f   luaglue.obj
 0001:00003310       ?min_expand@?A0xd55f0479@@YGPBDPAUMatchState@@PBD11@Z 10004310 f   luaglue.obj
 0001:00003320       ?start_capture@?A0xd55f0479@@YGPBDPAUMatchState@@PBD1H@Z 10004320 f   luaglue.obj
 0001:00003330       ?end_capture@?A0xd55f0479@@YGPBDPAUMatchState@@PBD1@Z 10004330 f   luaglue.obj
 0001:00003340       ?match_capture@?A0xd55f0479@@YGPBDPAUMatchState@@PBDH@Z 10004340 f   luaglue.obj
 0001:00003350       ?match@?A0xd55f0479@@YGPBDPAUMatchState@@PBD1@Z 10004350 f   luaglue.obj
 0001:00003360       ?lmemfind@?A0xd55f0479@@YGPBDPBDI0I@Z 10004360 f   luaglue.obj
 0001:00003370       ?push_onecapture@?A0xd55f0479@@YGXPAUMatchState@@HPBD1@Z 10004370 f   luaglue.obj
 0001:00003380       ?push_captures@?A0xd55f0479@@YGHPAUMatchState@@PBD1@Z 10004380 f   luaglue.obj
 0001:00003390       ?str_find_aux@?A0xd55f0479@@YGHPAUlua_State@@H@Z 10004390 f   luaglue.obj
 0001:000033a0       ?str_find@?A0xd55f0479@@YGHPAUlua_State@@@Z 100043a0 f   luaglue.obj
 0001:000033b0       ?str_match@?A0xd55f0479@@YGHPAUlua_State@@@Z 100043b0 f   luaglue.obj
 0001:000033c0       ?gmatch_aux@?A0xd55f0479@@YGHPAUlua_State@@@Z 100043c0 f   luaglue.obj
 0001:000033d0       ?gmatch@?A0xd55f0479@@YGHPAUlua_State@@@Z 100043d0 f   luaglue.obj
 0001:000033e0       ?gfind_nodef@?A0xd55f0479@@YGHPAUlua_State@@@Z 100043e0 f   luaglue.obj
 0001:000033f0       ?add_s@?A0xd55f0479@@YGXPAUMatchState@@PAUluaL_Buffer@@PBD2@Z 100043f0 f   luaglue.obj
 0001:00003400       ?add_value@?A0xd55f0479@@YGXPAUMatchState@@PAUluaL_Buffer@@PBD2@Z 10004400 f   luaglue.obj
 0001:00003410       ?str_gsub@?A0xd55f0479@@YGHPAUlua_State@@@Z 10004410 f   luaglue.obj
 0001:00003420       ?addquoted@?A0xd55f0479@@YGXPAUlua_State@@PAUluaL_Buffer@@H@Z 10004420 f   luaglue.obj
 0001:00003430       ?scanformat@?A0xd55f0479@@YGPBDPAUlua_State@@PBDPAD@Z 10004430 f   luaglue.obj
 0001:00003440       ?addintlen@?A0xd55f0479@@YGXPAD@Z 10004440 f   luaglue.obj
 0001:00003450       ?str_format@?A0xd55f0479@@YGHPAUlua_State@@@Z 10004450 f   luaglue.obj
 0001:00003460       ?createmetatable@?A0xd55f0479@@YGXPAUlua_State@@@Z 10004460 f   luaglue.obj
 0001:00003470       ?luaopen_string@@YGHPAUlua_State@@@Z 10004470 f   luaglue.obj
 0001:00003480       ?hashnum@?A0xd55f0479@@YGPAUNode@@PBUTable@@N@Z 10004480 f   luaglue.obj
 0001:00003490       ?mainposition@?A0xd55f0479@@YGPAUNode@@PBUTable@@PBUlua_TValue@@@Z 10004490 f   luaglue.obj
 0001:000034a0       ?findindex@?A0xd55f0479@@YGHPAUlua_State@@PAUTable@@PAUlua_TValue@@@Z 100044a0 f   luaglue.obj
 0001:000034b0       ?luaH_next@@YGHPAUlua_State@@PAUTable@@PAUlua_TValue@@@Z 100044b0 f   luaglue.obj
 0001:000034c0       ?computesizes@?A0xd55f0479@@YGHQAHPAH@Z 100044c0 f   luaglue.obj
 0001:000034d0       ?countint@?A0xd55f0479@@YGHPBUlua_TValue@@PAH@Z 100044d0 f   luaglue.obj
 0001:000034e0       ?numusearray@?A0xd55f0479@@YGHPBUTable@@PAH@Z 100044e0 f   luaglue.obj
 0001:000034f0       ?numusehash@?A0xd55f0479@@YGHPBUTable@@PAH1@Z 100044f0 f   luaglue.obj
 0001:00003500       ?setarrayvector@?A0xd55f0479@@YGXPAUlua_State@@PAUTable@@H@Z 10004500 f   luaglue.obj
 0001:00003510       ?setnodevector@?A0xd55f0479@@YGXPAUlua_State@@PAUTable@@H@Z 10004510 f   luaglue.obj
 0001:00003520       ?resize@?A0xd55f0479@@YGXPAUlua_State@@PAUTable@@HH@Z 10004520 f   luaglue.obj
 0001:00003530       ?luaH_resizearray@@YGXPAUlua_State@@PAUTable@@H@Z 10004530 f   luaglue.obj
 0001:00003540       ?rehash@?A0xd55f0479@@YGXPAUlua_State@@PAUTable@@PBUlua_TValue@@@Z 10004540 f   luaglue.obj
 0001:00003550       ?luaH_new@@YGPAUTable@@PAUlua_State@@HH@Z 10004550 f   luaglue.obj
 0001:00003560       ?luaH_free@@YGXPAUlua_State@@PAUTable@@@Z 10004560 f   luaglue.obj
 0001:00003570       ?getfreepos@?A0xd55f0479@@YGPAUNode@@PAUTable@@@Z 10004570 f   luaglue.obj
 0001:00003580       ?newkey@?A0xd55f0479@@YGPAUlua_TValue@@PAUlua_State@@PAUTable@@PBU2@@Z 10004580 f   luaglue.obj
 0001:00003590       ?luaH_getnum@@YGPBUlua_TValue@@PAUTable@@H@Z 10004590 f   luaglue.obj
 0001:000035a0       ?luaH_getstr@@YGPBUlua_TValue@@PAUTable@@PATTString@@@Z 100045a0 f   luaglue.obj
 0001:000035b0       ?luaH_set@@YGPAUlua_TValue@@PAUlua_State@@PAUTable@@PBU1@@Z 100045b0 f   luaglue.obj
 0001:000035c0       ?luaH_setnum@@YGPAUlua_TValue@@PAUlua_State@@PAUTable@@H@Z 100045c0 f   luaglue.obj
 0001:000035d0       ?luaH_setstr@@YGPAUlua_TValue@@PAUlua_State@@PAUTable@@PATTString@@@Z 100045d0 f   luaglue.obj
 0001:000035e0       ?unbound_search@?A0xd55f0479@@YGHPAUTable@@I@Z 100045e0 f   luaglue.obj
 0001:000035f0       ?luaH_getn@@YGHPAUTable@@@Z 100045f0 f   luaglue.obj
 0001:00003600       ?foreachi@?A0xd55f0479@@YGHPAUlua_State@@@Z 10004600 f   luaglue.obj
 0001:00003610       ?foreach@?A0xd55f0479@@YGHPAUlua_State@@@Z 10004610 f   luaglue.obj
 0001:00003620       ?maxn@?A0xd55f0479@@YGHPAUlua_State@@@Z 10004620 f   luaglue.obj
 0001:00003630       ?getn@?A0xd55f0479@@YGHPAUlua_State@@@Z 10004630 f   luaglue.obj
 0001:00003640       ?setn@?A0xd55f0479@@YGHPAUlua_State@@@Z 10004640 f   luaglue.obj
 0001:00003650       ?tinsert@?A0xd55f0479@@YGHPAUlua_State@@@Z 10004650 f   luaglue.obj
 0001:00003660       ?tremove@?A0xd55f0479@@YGHPAUlua_State@@@Z 10004660 f   luaglue.obj
 0001:00003670       ?addfield@?A0xd55f0479@@YGXPAUlua_State@@PAUluaL_Buffer@@H@Z 10004670 f   luaglue.obj
 0001:00003680       ?tconcat@?A0xd55f0479@@YGHPAUlua_State@@@Z 10004680 f   luaglue.obj
 0001:00003690       ?set2@?A0xd55f0479@@YGXPAUlua_State@@HH@Z 10004690 f   luaglue.obj
 0001:000036a0       ?sort_comp@?A0xd55f0479@@YGHPAUlua_State@@HH@Z 100046a0 f   luaglue.obj
 0001:000036b0       ?auxsort@?A0xd55f0479@@YGXPAUlua_State@@HH@Z 100046b0 f   luaglue.obj
 0001:000036c0       ?sort@?A0xd55f0479@@YGHPAUlua_State@@@Z 100046c0 f   luaglue.obj
 0001:000036d0       ?luaopen_table@@YGHPAUlua_State@@@Z 100046d0 f   luaglue.obj
 0001:000036e0       ?luaT_init@@YGXPAUlua_State@@@Z 100046e0 f   luaglue.obj
 0001:000036f0       ?luaT_gettm@@YGPBUlua_TValue@@PAUTable@@W4TMS@@PATTString@@@Z 100046f0 f   luaglue.obj
 0001:00003700       ?luaT_gettmbyobj@@YGPBUlua_TValue@@PAUlua_State@@PBU1@W4TMS@@@Z 10004700 f   luaglue.obj
 0001:00003710       ?lstop@?A0xd55f0479@@YGXPAUlua_State@@PAUlua_Debug@@@Z 10004710 f   luaglue.obj
 0001:00003720       ?laction@?A0xd55f0479@@YGXH@Z 10004720 f   luaglue.obj
 0001:00003730       ?print_usage@?A0xd55f0479@@YGXXZ 10004730 f   luaglue.obj
 0001:00003740       ?l_message@?A0xd55f0479@@YGXPBD0@Z 10004740 f   luaglue.obj
 0001:00003750       ?report@?A0xd55f0479@@YGHPAUlua_State@@H@Z 10004750 f   luaglue.obj
 0001:00003760       ?traceback@?A0xd55f0479@@YGHPAUlua_State@@@Z 10004760 f   luaglue.obj
 0001:00003770       ?docall@?A0xd55f0479@@YGHPAUlua_State@@HH@Z 10004770 f   luaglue.obj
 0001:00003780       ?print_version@?A0xd55f0479@@YGXXZ 10004780 f   luaglue.obj
 0001:00003790       ?getargs@?A0xd55f0479@@YGHPAUlua_State@@PAPADH@Z 10004790 f   luaglue.obj
 0001:000037a0       ?dofile@?A0xd55f0479@@YGHPAUlua_State@@PBD@Z 100047a0 f   luaglue.obj
 0001:000037b0       ?dostring@?A0xd55f0479@@YGHPAUlua_State@@PBD1@Z 100047b0 f   luaglue.obj
 0001:000037c0       ?dolibrary@?A0xd55f0479@@YGHPAUlua_State@@PBD@Z 100047c0 f   luaglue.obj
 0001:000037d0       ?get_prompt@?A0xd55f0479@@YGPBDPAUlua_State@@H@Z 100047d0 f   luaglue.obj
 0001:000037e0       ?incomplete@?A0xd55f0479@@YGHPAUlua_State@@H@Z 100047e0 f   luaglue.obj
 0001:000037f0       ?pushline@?A0xd55f0479@@YGHPAUlua_State@@H@Z 100047f0 f   luaglue.obj
 0001:00003800       ?loadline@?A0xd55f0479@@YGHPAUlua_State@@@Z 10004800 f   luaglue.obj
 0001:00003810       ?dotty@?A0xd55f0479@@YGXPAUlua_State@@@Z 10004810 f   luaglue.obj
 0001:00003820       ?handle_script@?A0xd55f0479@@YGHPAUlua_State@@PAPADH@Z 10004820 f   luaglue.obj
 0001:00003830       ?collectargs@?A0xd55f0479@@YGHPAPADPAH11@Z 10004830 f   luaglue.obj
 0001:00003840       ?runargs@?A0xd55f0479@@YGHPAUlua_State@@PAPADH@Z 10004840 f   luaglue.obj
 0001:00003850       ?handle_luainit@?A0xd55f0479@@YGHPAUlua_State@@@Z 10004850 f   luaglue.obj
 0001:00003860       ?pmain@?A0xd55f0479@@YGHPAUlua_State@@@Z 10004860 f   luaglue.obj
 0001:00003870       _main                      10004870 f   luaglue.obj
 0001:00003880       ?error@?A0xd55f0479@@YGXPAULoadState@@PBD@Z 10004880 f   luaglue.obj
 0001:00003890       ?LoadBlock@?A0xd55f0479@@YGXPAULoadState@@PAXI@Z 10004890 f   luaglue.obj
 0001:000038a0       ?LoadChar@?A0xd55f0479@@YGHPAULoadState@@@Z 100048a0 f   luaglue.obj
 0001:000038b0       ?LoadInt@?A0xd55f0479@@YGHPAULoadState@@@Z 100048b0 f   luaglue.obj
 0001:000038c0       ?LoadNumber@?A0xd55f0479@@YGNPAULoadState@@@Z 100048c0 f   luaglue.obj
 0001:000038d0       ?LoadStringW@?A0xd55f0479@@YGPATTString@@PAULoadState@@@Z 100048d0 f   luaglue.obj
 0001:000038e0       ?LoadCode@?A0xd55f0479@@YGXPAULoadState@@PAUProto@@@Z 100048e0 f   luaglue.obj
 0001:000038f0       ?LoadConstants@?A0xd55f0479@@YGXPAULoadState@@PAUProto@@@Z 100048f0 f   luaglue.obj
 0001:00003900       ?LoadDebug@?A0xd55f0479@@YGXPAULoadState@@PAUProto@@@Z 10004900 f   luaglue.obj
 0001:00003910       ?LoadFunction@?A0xd55f0479@@YGPAUProto@@PAULoadState@@PATTString@@@Z 10004910 f   luaglue.obj
 0001:00003920       ?LoadHeader@?A0xd55f0479@@YGXPAULoadState@@@Z 10004920 f   luaglue.obj
 0001:00003930       ?luaU_undump@@YGPAUProto@@PAUlua_State@@PAUZio@@PAUMbuffer@@PBD@Z 10004930 f   luaglue.obj
 0001:00003940       ?luaU_header@@YGXPAD@Z     10004940 f   luaglue.obj
 0001:00003950       ?luaV_tonumber@@YGPBUlua_TValue@@PBU1@PAU1@@Z 10004950 f   luaglue.obj
 0001:00003960       ?luaV_tostring@@YGHPAUlua_State@@PAUlua_TValue@@@Z 10004960 f   luaglue.obj
 0001:00003970       ?traceexec@?A0xd55f0479@@YGXPAUlua_State@@PBI@Z 10004970 f   luaglue.obj
 0001:00003980       ?callTMres@?A0xd55f0479@@YGXPAUlua_State@@PAUlua_TValue@@PBU3@22@Z 10004980 f   luaglue.obj
 0001:00003990       ?callTM@?A0xd55f0479@@YGXPAUlua_State@@PBUlua_TValue@@111@Z 10004990 f   luaglue.obj
 0001:000039a0       ?luaV_gettable@@YGXPAUlua_State@@PBUlua_TValue@@PAU2@2@Z 100049a0 f   luaglue.obj
 0001:000039b0       ?luaV_settable@@YGXPAUlua_State@@PBUlua_TValue@@PAU2@2@Z 100049b0 f   luaglue.obj
 0001:000039c0       ?call_binTM@?A0xd55f0479@@YGHPAUlua_State@@PBUlua_TValue@@1PAU3@W4TMS@@@Z 100049c0 f   luaglue.obj
 0001:000039d0       ?get_compTM@?A0xd55f0479@@YGPBUlua_TValue@@PAUlua_State@@PAUTable@@1W4TMS@@@Z 100049d0 f   luaglue.obj
 0001:000039e0       ?call_orderTM@?A0xd55f0479@@YGHPAUlua_State@@PBUlua_TValue@@1W4TMS@@@Z 100049e0 f   luaglue.obj
 0001:000039f0       ?l_strcmp@?A0xd55f0479@@YGHPBTTString@@0@Z 100049f0 f   luaglue.obj
 0001:00003a00       ?luaV_lessthan@@YGHPAUlua_State@@PBUlua_TValue@@1@Z 10004a00 f   luaglue.obj
 0001:00003a10       ?lessequal@?A0xd55f0479@@YGHPAUlua_State@@PBUlua_TValue@@1@Z 10004a10 f   luaglue.obj
 0001:00003a20       ?luaV_equalval@@YGHPAUlua_State@@PBUlua_TValue@@1@Z 10004a20 f   luaglue.obj
 0001:00003a30       ?luaV_concat@@YGXPAUlua_State@@HH@Z 10004a30 f   luaglue.obj
 0001:00003a40       ?Arith@?A0xd55f0479@@YGXPAUlua_State@@PAUlua_TValue@@PBU3@2W4TMS@@@Z 10004a40 f   luaglue.obj
 0001:00003a50       ?luaV_execute@@YGXPAUlua_State@@H@Z 10004a50 f   luaglue.obj
 0001:00003a60       ?luaZ_fill@@YGHPAUZio@@@Z  10004a60 f   luaglue.obj
 0001:00003a70       ?luaZ_lookahead@@YGHPAUZio@@@Z 10004a70 f   luaglue.obj
 0001:00003a80       ?luaZ_init@@YGXPAUlua_State@@PAUZio@@P6GPBD0PAXPAI@Z2@Z 10004a80 f   luaglue.obj
 0001:00003a90       ?luaZ_read@@YGIPAUZio@@PAXI@Z 10004a90 f   luaglue.obj
 0001:00003aa0       ?luaZ_openspace@@YGPADPAUlua_State@@PAUMbuffer@@I@Z 10004aa0 f   luaglue.obj
 0001:00003aa6       ??0type_info@@AAE@ABV0@@Z  10004aa6 f   MSVCRT:ti_inst.obj
 0001:00003ab1       ??_Etype_info@@UAEPAXI@Z   10004ab1 f i MSVCRT:ti_inst.obj
 0001:00003afd       ??4type_info@@AAEAAV0@ABV0@@Z 10004afd f   MSVCRT:ti_inst.obj
 0001:00003b02       _NtCurrentTeb              10004b02 f i MSVCRT:crtdll.obj
 0001:00003b58       __CRT_INIT@12              10004b58 f   MSVCRT:crtdll.obj
 0001:00003e94       __DllMainCRTStartup@12     10004e94 f   MSVCRT:crtdll.obj
 0001:00003eb8       ??3@YAXPAX@Z               10004eb8 f   MSVCRT:MSVCR90.dll
 0001:00003ed0       ?__ArrayUnwind@@YGXPAXIHP6EX0@Z@Z 10004ed0 f   MSVCRT:ehvecdtr.obj
 0001:00003f2e       ??_M@YGXPAXIHP6EX0@Z@Z     10004f2e f   MSVCRT:ehvecdtr.obj
 0001:00003f91       ___clean_type_info_names   10004f91 f   MSVCRT:tncleanup.obj
 0001:00003f9d       __onexit                   10004f9d f   MSVCRT:atonexit.obj
 0001:00004042       _atexit                    10005042 f   MSVCRT:atonexit.obj
 0001:00004059       __RTC_Initialize           10005059 f   MSVCRT:_initsect_.obj
 0001:0000407f       __RTC_Terminate            1000507f f   MSVCRT:_initsect_.obj
 0001:000040a6       __encode_pointer           100050a6 f   MSVCRT:MSVCR90.dll
 0001:000040a6       ?_encode_pointer@@$$J0YAPAXPAX@Z 100050a6 f   MSVCRT:MSVCR90.dll
 0001:000040ac       __malloc_crt               100050ac f   MSVCRT:MSVCR90.dll
 0001:000040b2       _free                      100050b2 f   MSVCRT:MSVCR90.dll
 0001:000040b2       ?free@@$$J0YAXPAX@Z        100050b2 f   MSVCRT:MSVCR90.dll
 0001:000040b8       __encoded_null             100050b8 f   MSVCRT:MSVCR90.dll
 0001:000040b8       ?_encoded_null@@$$J0YAPAXXZ 100050b8 f   MSVCRT:MSVCR90.dll
 0001:000040be       ?_decode_pointer@@$$J0YAPAXPAX@Z 100050be f   MSVCRT:MSVCR90.dll
 0001:000040be       __decode_pointer           100050be f   MSVCRT:MSVCR90.dll
 0001:000040d0       __ValidateImageBase        100050d0 f   MSVCRT:pesect.obj
 0001:00004110       __FindPESection            10005110 f   MSVCRT:pesect.obj
 0001:00004160       __IsNonwritableInCurrentImage 10005160 f   MSVCRT:pesect.obj
 0001:0000421e       __initterm                 1000521e f   MSVCRT:MSVCR90.dll
 0001:00004224       __initterm_e               10005224 f   MSVCRT:MSVCR90.dll
 0001:0000422a       __amsg_exit                1000522a f   MSVCRT:MSVCR90.dll
 0001:0000422a       ?_amsg_exit@@$$J0YAXH@Z    1000522a f   MSVCRT:MSVCR90.dll
 0001:00004230       ___CppXcptFilter           10005230 f   MSVCRT:MSVCR90.dll
 0001:00004236       _DllMain@12                10005236 f   MSVCRT:dllmain.obj
 0001:0000425c       __SEH_prolog4              1000525c f   MSVCRT:sehprolg4.obj
 0001:000042a1       __SEH_epilog4              100052a1 f   MSVCRT:sehprolg4.obj
 0001:000042b5       __except_handler4          100052b5 f   MSVCRT:chandler4gs.obj
 0001:000042da       ___security_init_cookie    100052da f   MSVCRT:gs_support.obj
 0001:000042da       ?__security_init_cookie@@$$J0YAXXZ 100052da f   MSVCRT:gs_support.obj
 0001:00004370       ?terminate@@YAXXZ          10005370 f   MSVCRT:MSVCR90.dll
 0001:00004376       ??1type_info@@UAE@XZ       10005376 f   MSVCRT:MSVCR90.dll
 0001:00004376       ?_type_info_dtor_internal_method@type_info@@QAEXXZ 10005376 f   MSVCRT:MSVCR90.dll
 0001:0000437c       ___clean_type_info_names_internal 1000537c f   MSVCRT:MSVCR90.dll
 0001:00004382       __unlock                   10005382 f   MSVCRT:MSVCR90.dll
 0001:00004388       ___dllonexit               10005388 f   MSVCRT:MSVCR90.dll
 0001:0000438e       __lock                     1000538e f   MSVCRT:MSVCR90.dll
 0001:00004394       @__security_check_cookie@4 10005394 f   MSVCRT:secchk.obj
 0001:000043a4       __except_handler4_common   100053a4 f   MSVCRT:MSVCR90.dll
 0001:000043aa       ___report_gsfailure        100053aa f   MSVCRT:gs_report.obj
 0001:000044b0       __crt_debugger_hook        100054b0 f   MSVCRT:MSVCR90.dll
 0001:000044b8       ?IsInDllMain@NativeDll@<CrtImplementationDetails>@@$$FSA_NXZ 100054b8 f i MSVCMRT:mstartup.obj
 0001:000044d4       __t2m@?IsInDllMain@NativeDll@<CrtImplementationDetails>@@SA_NXZ 100054d4 f i MSVCMRT:mstartup.obj
 0001:000044dc       ?IsInProcessAttach@NativeDll@<CrtImplementationDetails>@@$$FSA_NXZ 100054dc f i MSVCMRT:mstartup.obj
 0001:000044f4       __t2m@?IsInProcessAttach@NativeDll@<CrtImplementationDetails>@@SA_NXZ 100054f4 f i MSVCMRT:mstartup.obj
 0001:000044fc       ?IsInProcessDetach@NativeDll@<CrtImplementationDetails>@@$$FSA_NXZ 100054fc f i MSVCMRT:mstartup.obj
 0001:00004514       __t2m@?IsInProcessDetach@NativeDll@<CrtImplementationDetails>@@SA_NXZ 10005514 f i MSVCMRT:mstartup.obj
 0001:0000451c       ?IsInVcclrit@NativeDll@<CrtImplementationDetails>@@$$FSA_NXZ 1000551c f i MSVCMRT:mstartup.obj
 0001:00004538       __t2m@?IsInVcclrit@NativeDll@<CrtImplementationDetails>@@SA_NXZ 10005538 f i MSVCMRT:mstartup.obj
 0001:00004540       ?IsSafeForManagedCode@NativeDll@<CrtImplementationDetails>@@$$FSA_NXZ 10005540 f i MSVCMRT:mstartup.obj
 0001:00004595       __t2m@?IsSafeForManagedCode@NativeDll@<CrtImplementationDetails>@@SA_NXZ 10005595 f i MSVCMRT:mstartup.obj
 0001:0000459b       ?_getFiberPtrId@@YAPAXXZ   1000559b f   MSVCMRT:mstartup.obj
 0001:0000459b       ?_getFiberPtrId@@$$FYAPAXXZ 1000559b f   MSVCMRT:mstartup.obj
 0001:000045a8       ?DoNothing@DefaultDomain@<CrtImplementationDetails>@@$$FCGJPAX@Z 100055a8 f i MSVCMRT:mstartup.obj
 0001:000045c5       __t2m@?DoNothing@DefaultDomain@<CrtImplementationDetails>@@CGJPAX@Z 100055c5 f i MSVCMRT:mstartup.obj
 0001:000045c5       ?DoNothing@DefaultDomain@<CrtImplementationDetails>@@CGJPAX@Z 100055c5 f i MSVCMRT:mstartup.obj
 0001:000045cc       ?HasPerProcess@DefaultDomain@<CrtImplementationDetails>@@$$FSA_NXZ 100055cc f i MSVCMRT:mstartup.obj
 0001:0000461e       __t2m@?HasPerProcess@DefaultDomain@<CrtImplementationDetails>@@SA_NXZ 1000561e f i MSVCMRT:mstartup.obj
 0001:00004624       ?HasNative@DefaultDomain@<CrtImplementationDetails>@@$$FSA_NXZ 10005624 f i MSVCMRT:mstartup.obj
 0001:000046a2       __t2m@?HasNative@DefaultDomain@<CrtImplementationDetails>@@SA_NXZ 100056a2 f i MSVCMRT:mstartup.obj
 0001:000046a8       ?NeedsInitialization@DefaultDomain@<CrtImplementationDetails>@@$$FSA_NXZ 100056a8 f i MSVCMRT:mstartup.obj
 0001:000046e2       __t2m@?NeedsInitialization@DefaultDomain@<CrtImplementationDetails>@@SA_NXZ 100056e2 f i MSVCMRT:mstartup.obj
 0001:000046e8       ?NeedsUninitialization@DefaultDomain@<CrtImplementationDetails>@@$$FSA_NXZ 100056e8 f i MSVCMRT:mstartup.obj
 0001:000046fa       __t2m@?NeedsUninitialization@DefaultDomain@<CrtImplementationDetails>@@SA_NXZ 100056fa f i MSVCMRT:mstartup.obj
 0001:00004700       ?Initialize@DefaultDomain@<CrtImplementationDetails>@@$$FSAXXZ 10005700 f i MSVCMRT:mstartup.obj
 0001:00004718       __t2m@?Initialize@DefaultDomain@<CrtImplementationDetails>@@SAXXZ 10005718 f i MSVCMRT:mstartup.obj
 0001:00004720       ?UninitializeAppDomain@LanguageSupport@<CrtImplementationDetails>@@$$FCAXXZ 10005720 f i MSVCMRT:mstartup.obj
 0001:00004732       __t2m@?UninitializeAppDomain@LanguageSupport@<CrtImplementationDetails>@@CAXXZ 10005732 f i MSVCMRT:mstartup.obj
 0001:00004738       ?_UninitializeDefaultDomain@LanguageSupport@<CrtImplementationDetails>@@$$FCGJPAX@Z 10005738 f i MSVCMRT:mstartup.obj
 0001:00004771       __t2m@?_UninitializeDefaultDomain@LanguageSupport@<CrtImplementationDetails>@@CGJPAX@Z 10005771 f i MSVCMRT:mstartup.obj
 0001:00004771       ?_UninitializeDefaultDomain@LanguageSupport@<CrtImplementationDetails>@@CGJPAX@Z 10005771 f i MSVCMRT:mstartup.obj
 0001:00004778       ?UninitializeDefaultDomain@LanguageSupport@<CrtImplementationDetails>@@$$FCAXXZ 10005778 f i MSVCMRT:mstartup.obj
 0001:000047ac       __t2m@?UninitializeDefaultDomain@LanguageSupport@<CrtImplementationDetails>@@CAXXZ 100057ac f i MSVCMRT:mstartup.obj
 0001:000047b4       ?DomainUnload@LanguageSupport@<CrtImplementationDetails>@@$$FCMXP$AAVObject@System@@P$AAVEventArgs@4@@Z 100057b4 f i MSVCMRT:mstartup.obj
 0001:000047ef       __t2m@?DomainUnload@LanguageSupport@<CrtImplementationDetails>@@CMXP$AAVObject@System@@P$AAVEventArgs@4@@Z 100057ef f i MSVCMRT:mstartup.obj
 0001:000047f8       ?Cleanup@LanguageSupport@<CrtImplementationDetails>@@$$FAAMXP$AAVException@System@@@Z 100057f8 f i MSVCMRT:mstartup.obj
 0001:0000486c       __t2m@?Cleanup@LanguageSupport@<CrtImplementationDetails>@@AAMXP$AAVException@System@@@Z 1000586c f i MSVCMRT:mstartup.obj
 0001:00004874       ??0?$gcroot@P$AAVString@System@@@@$$FQAE@XZ 10005874 f i MSVCMRT:mstartup.obj
 0001:00004897       __t2m@??0?$gcroot@P$AAVString@System@@@@QAE@XZ 10005897 f i MSVCMRT:mstartup.obj
 0001:000048a0       ??1?$gcroot@P$AAVString@System@@@@$$FQAE@XZ 100058a0 f i MSVCMRT:mstartup.obj
 0001:000048c7       __t2m@??1?$gcroot@P$AAVString@System@@@@QAE@XZ 100058c7 f i MSVCMRT:mstartup.obj
 0001:000048d0       ??4?$gcroot@P$AAVString@System@@@@$$FQAMAAU0@P$AAVString@System@@@Z 100058d0 f i MSVCMRT:mstartup.obj
 0001:000048f6       __t2m@??4?$gcroot@P$AAVString@System@@@@QAMAAU0@P$AAVString@System@@@Z 100058f6 f i MSVCMRT:mstartup.obj
 0001:000048fc       ??B?$gcroot@P$AAVString@System@@@@$$FQBMP$AAVString@System@@XZ 100058fc f i MSVCMRT:mstartup.obj
 0001:00004920       __t2m@??B?$gcroot@P$AAVString@System@@@@QBMP$AAVString@System@@XZ 10005920 f i MSVCMRT:mstartup.obj
 0001:00004928       ?InitializeVtables@LanguageSupport@<CrtImplementationDetails>@@$$FAAEXXZ 10005928 f i MSVCMRT:mstartup.obj
 0001:0000495c       __t2m@?InitializeVtables@LanguageSupport@<CrtImplementationDetails>@@AAEXXZ 1000595c f i MSVCMRT:mstartup.obj
 0001:00004964       ?InitializeDefaultAppDomain@LanguageSupport@<CrtImplementationDetails>@@$$FAAEXXZ 10005964 f i MSVCMRT:mstartup.obj
 0001:00004982       __t2m@?InitializeDefaultAppDomain@LanguageSupport@<CrtImplementationDetails>@@AAEXXZ 10005982 f i MSVCMRT:mstartup.obj
 0001:00004988       ?InitializeNative@LanguageSupport@<CrtImplementationDetails>@@$$FAAEXXZ 10005988 f i MSVCMRT:mstartup.obj
 0001:00004a23       __t2m@?InitializeNative@LanguageSupport@<CrtImplementationDetails>@@AAEXXZ 10005a23 f i MSVCMRT:mstartup.obj
 0001:00004a2c       ?InitializePerProcess@LanguageSupport@<CrtImplementationDetails>@@$$FAAEXXZ 10005a2c f i MSVCMRT:mstartup.obj
 0001:00004a6c       __t2m@?InitializePerProcess@LanguageSupport@<CrtImplementationDetails>@@AAEXXZ 10005a6c f i MSVCMRT:mstartup.obj
 0001:00004a74       ?InitializePerAppDomain@LanguageSupport@<CrtImplementationDetails>@@$$FAAEXXZ 10005a74 f i MSVCMRT:mstartup.obj
 0001:00004aae       __t2m@?InitializePerAppDomain@LanguageSupport@<CrtImplementationDetails>@@AAEXXZ 10005aae f i MSVCMRT:mstartup.obj
 0001:00004ab4       ?InitializeUninitializer@LanguageSupport@<CrtImplementationDetails>@@$$FAAEXXZ 10005ab4 f i MSVCMRT:mstartup.obj
 0001:00004ade       __t2m@?InitializeUninitializer@LanguageSupport@<CrtImplementationDetails>@@AAEXXZ 10005ade f i MSVCMRT:mstartup.obj
 0001:00004ae4       ?_Initialize@LanguageSupport@<CrtImplementationDetails>@@$$FAAEXXZ 10005ae4 f i MSVCMRT:mstartup.obj
 0001:00004bfc       __t2m@?_Initialize@LanguageSupport@<CrtImplementationDetails>@@AAEXXZ 10005bfc f i MSVCMRT:mstartup.obj
 0001:00004c04       ?Initialize@LanguageSupport@<CrtImplementationDetails>@@$$FQAEXXZ 10005c04 f i MSVCMRT:mstartup.obj
 0001:00004cc0       __t2m@?Initialize@LanguageSupport@<CrtImplementationDetails>@@QAEXXZ 10005cc0 f i MSVCMRT:mstartup.obj
 0001:00004cc8       ??0LanguageSupport@<CrtImplementationDetails>@@$$FQAE@XZ 10005cc8 f i MSVCMRT:mstartup.obj
 0001:00004ce4       __t2m@??0LanguageSupport@<CrtImplementationDetails>@@QAE@XZ 10005ce4 f i MSVCMRT:mstartup.obj
 0001:00004cec       ??1LanguageSupport@<CrtImplementationDetails>@@$$FQAE@XZ 10005cec f i MSVCMRT:mstartup.obj
 0001:00004d04       __t2m@??1LanguageSupport@<CrtImplementationDetails>@@QAE@XZ 10005d04 f i MSVCMRT:mstartup.obj
 0001:00004d0c       ?.cctor@@$$FYMXXZ          10005d0c f   MSVCMRT:mstartup.obj
 0001:00004d5c       ?.cctor@@YMXXZ             10005d5c f   MSVCMRT:mstartup.obj
 0001:00004d64       ?_handle@AtExitLock@<CrtImplementationDetails>@@$$FCMP$AAVGCHandle@InteropServices@Runtime@System@@XZ 10005d64 f i MSVCMRT:msilexit.obj
 0001:00004d91       __t2m@?_handle@AtExitLock@<CrtImplementationDetails>@@CMP$AAVGCHandle@InteropServices@Runtime@System@@XZ 10005d91 f i MSVCMRT:msilexit.obj
 0001:00004d98       ?_lock_Set@AtExitLock@<CrtImplementationDetails>@@$$FCMXP$AAVObject@System@@@Z 10005d98 f i MSVCMRT:msilexit.obj
 0001:00004de5       __t2m@?_lock_Set@AtExitLock@<CrtImplementationDetails>@@CMXP$AAVObject@System@@@Z 10005de5 f i MSVCMRT:msilexit.obj
 0001:00004dec       ?_lock_Get@AtExitLock@<CrtImplementationDetails>@@$$FCMP$AAVObject@System@@XZ 10005dec f i MSVCMRT:msilexit.obj
 0001:00004e0f       __t2m@?_lock_Get@AtExitLock@<CrtImplementationDetails>@@CMP$AAVObject@System@@XZ 10005e0f f i MSVCMRT:msilexit.obj
 0001:00004e18       ?_lock_Destruct@AtExitLock@<CrtImplementationDetails>@@$$FCAXXZ 10005e18 f i MSVCMRT:msilexit.obj
 0001:00004e3f       __t2m@?_lock_Destruct@AtExitLock@<CrtImplementationDetails>@@CAXXZ 10005e3f f i MSVCMRT:msilexit.obj
 0001:00004e48       ?IsInitialized@AtExitLock@<CrtImplementationDetails>@@$$FSA_NXZ 10005e48 f i MSVCMRT:msilexit.obj
 0001:00004e62       __t2m@?IsInitialized@AtExitLock@<CrtImplementationDetails>@@SA_NXZ 10005e62 f i MSVCMRT:msilexit.obj
 0001:00004e68       ?RemoveRef@AtExitLock@<CrtImplementationDetails>@@$$FSAXXZ 10005e68 f i MSVCMRT:msilexit.obj
 0001:00004e8d       __t2m@?RemoveRef@AtExitLock@<CrtImplementationDetails>@@SAXXZ 10005e8d f i MSVCMRT:msilexit.obj
 0001:00004e94       ?Enter@AtExitLock@<CrtImplementationDetails>@@$$FSAXXZ 10005e94 f i MSVCMRT:msilexit.obj
 0001:00004eab       __t2m@?Enter@AtExitLock@<CrtImplementationDetails>@@SAXXZ 10005eab f i MSVCMRT:msilexit.obj
 0001:00004eb4       ?Exit@AtExitLock@<CrtImplementationDetails>@@$$FSAXXZ 10005eb4 f i MSVCMRT:msilexit.obj
 0001:00004ecb       __t2m@?Exit@AtExitLock@<CrtImplementationDetails>@@SAXXZ 10005ecb f i MSVCMRT:msilexit.obj
 0001:00004ed4       ?__global_lock@?A0x11773762@@$$FYA_NXZ 10005ed4 f   MSVCMRT:msilexit.obj
 0001:00004ef7       ?__global_lock@?A0x11773762@@YA_NXZ 10005ef7 f   MSVCMRT:msilexit.obj
 0001:00004f00       ?__global_unlock@?A0x11773762@@$$FYA_NXZ 10005f00 f   MSVCMRT:msilexit.obj
 0001:00004f23       ?__global_unlock@?A0x11773762@@YA_NXZ 10005f23 f   MSVCMRT:msilexit.obj
 0001:00004f2c       ?__dealloc_global_lock@?A0x11773762@@$$FYAXXZ 10005f2c f   MSVCMRT:msilexit.obj
 0001:00004f51       ?__dealloc_global_lock@?A0x11773762@@YAXXZ 10005f51 f   MSVCMRT:msilexit.obj
 0001:00004f58       ?_atexit_helper@@$$J0YMHP6MXXZPAIPAPAP6MXXZ2@Z 10005f58 f   MSVCMRT:msilexit.obj
 0001:000050c4       __atexit_helper            100060c4 f   MSVCMRT:msilexit.obj
 0001:000050cc       ?_exit_callback@@$$J0YMXXZ 100060cc f   MSVCMRT:msilexit.obj
 0001:0000516d       __exit_callback            1000616d f   MSVCMRT:msilexit.obj
 0001:00005174       ?_atexit_m@@$$J0YMHP6MXXZ@Z 10006174 f   MSVCMRT:msilexit.obj
 0001:0000519b       __atexit_m                 1000619b f   MSVCMRT:msilexit.obj
 0001:000051a4       ?_app_exit_callback@@$$J0YMXXZ 100061a4 f   MSVCMRT:msilexit.obj
 0001:00005278       __app_exit_callback        10006278 f   MSVCMRT:msilexit.obj
 0001:00005280       ?_atexit_m_appdomain@@$$J0YMHP6MXXZ@Z 10006280 f   MSVCMRT:msilexit.obj
 0001:000052a7       __atexit_m_appdomain       100062a7 f   MSVCMRT:msilexit.obj
 0001:000052b0       ?_lock_Construct@AtExitLock@<CrtImplementationDetails>@@$$FCMXP$AAVObject@System@@@Z 100062b0 f i MSVCMRT:msilexit.obj
 0001:000052c9       __t2m@?_lock_Construct@AtExitLock@<CrtImplementationDetails>@@CMXP$AAVObject@System@@@Z 100062c9 f i MSVCMRT:msilexit.obj
 0001:000052d0       ?AddRef@AtExitLock@<CrtImplementationDetails>@@$$FSAXXZ 100062d0 f i MSVCMRT:msilexit.obj
 0001:00005306       __t2m@?AddRef@AtExitLock@<CrtImplementationDetails>@@SAXXZ 10006306 f i MSVCMRT:msilexit.obj
 0001:0000530c       ?__alloc_global_lock@?A0x11773762@@$$FYA_NXZ 1000630c f   MSVCMRT:msilexit.obj
 0001:00005323       ?__alloc_global_lock@?A0x11773762@@YA_NXZ 10006323 f   MSVCMRT:msilexit.obj
 0001:0000532c       ?_initatexit_m@@$$J0YMHXZ  1000632c f   MSVCMRT:msilexit.obj
 0001:00005371       __initatexit_m             10006371 f   MSVCMRT:msilexit.obj
 0001:00005378       ?_onexit_m@@$$J0YMP6MHXZP6MHXZ@Z 10006378 f   MSVCMRT:msilexit.obj
 0001:00005392       __onexit_m                 10006392 f   MSVCMRT:msilexit.obj
 0001:00005398       ?_initatexit_app_domain@@$$J0YMHXZ 10006398 f   MSVCMRT:msilexit.obj
 0001:000053db       __initatexit_app_domain    100063db f   MSVCMRT:msilexit.obj
 0001:000053e4       ?_onexit_m_appdomain@@$$J0YMP6MHXZP6MHXZ@Z 100063e4 f   MSVCMRT:msilexit.obj
 0001:000053fe       __onexit_m_appdomain       100063fe f   MSVCMRT:msilexit.obj
 0001:00005404       ?_initterm_e@@$$FYMHPAP6AHXZ0@Z 10006404 f   MSVCMRT:puremsilcode.obj
 0001:00005431       ?_initterm_e@@YMHPAP6AHXZ0@Z 10006431 f   MSVCMRT:puremsilcode.obj
 0001:00005438       ?_initterm@@$$FYMXPAP6AXXZ0@Z 10006438 f   MSVCMRT:puremsilcode.obj
 0001:0000545e       ?_initterm@@YMXPAP6AXXZ0@Z 1000645e f   MSVCMRT:puremsilcode.obj
 0001:00005464       ?Handle@ThisModule@<CrtImplementationDetails>@@$$FCM?AVModuleHandle@System@@XZ 10006464 f i MSVCMRT:puremsilcode.obj
 0001:00005485       __t2m@?Handle@ThisModule@<CrtImplementationDetails>@@CM?AVModuleHandle@System@@XZ 10006485 f i MSVCMRT:puremsilcode.obj
 0001:0000548c       ??$ResolveMethod@$$A6MPBXXZ@ThisModule@<CrtImplementationDetails>@@$$FSMP6MPBXXZP6MPBXXZ@Z 1000648c f i MSVCMRT:puremsilcode.obj
 0001:000054b7       __t2m@??$ResolveMethod@$$A6MPBXXZ@ThisModule@<CrtImplementationDetails>@@SMP6MPBXXZP6MPBXXZ@Z 100064b7 f i MSVCMRT:puremsilcode.obj
 0001:000054c0       ?_initterm_m@@$$FYMXPBQ6MPBXXZ0@Z 100064c0 f   MSVCMRT:puremsilcode.obj
 0001:000054ec       ?_initterm_m@@YMXPBQ6MPBXXZ0@Z 100064ec f   MSVCMRT:puremsilcode.obj
 0001:000054f4       ?___CxxCallUnwindDtor@@$$J0YMXP6MXPAX@Z0@Z 100064f4 f   MSVCMRT:managdeh.obj
 0001:00005538       ____CxxCallUnwindDtor      10006538 f   MSVCMRT:managdeh.obj
 0001:00005540       ?___CxxCallUnwindDelDtor@@$$J0YMXP6MXPAX@Z0@Z 10006540 f   MSVCMRT:managdeh.obj
 0001:00005584       ____CxxCallUnwindDelDtor   10006584 f   MSVCMRT:managdeh.obj
 0001:0000558c       ?___CxxCallUnwindVecDtor@@$$J0YMXP6MXPAXIHP6MX0@Z@Z0IH1@Z 1000658c f   MSVCMRT:managdeh.obj
 0001:000055d4       ____CxxCallUnwindVecDtor   100065d4 f   MSVCMRT:managdeh.obj
 0001:000055da       _InterlockedExchange@8     100065da f   kernel32:KERNEL32.dll
 0001:000055e0       _Sleep@4                   100065e0 f   kernel32:KERNEL32.dll
 0001:000055e0       ?Sleep@@$$J14YGXK@Z        100065e0 f   kernel32:KERNEL32.dll
 0001:000055e6       _InterlockedCompareExchange@12 100065e6 f   kernel32:KERNEL32.dll
 0001:000055ec       _DisableThreadLibraryCalls@4 100065ec f   kernel32:KERNEL32.dll
 0001:000055f2       _QueryPerformanceCounter@4 100065f2 f   kernel32:KERNEL32.dll
 0001:000055f8       _GetTickCount@0            100065f8 f   kernel32:KERNEL32.dll
 0001:000055fe       _GetCurrentThreadId@0      100065fe f   kernel32:KERNEL32.dll
 0001:00005604       _GetCurrentProcessId@0     10006604 f   kernel32:KERNEL32.dll
 0001:0000560a       _GetSystemTimeAsFileTime@4 1000660a f   kernel32:KERNEL32.dll
 0001:00005610       _TerminateProcess@8        10006610 f   kernel32:KERNEL32.dll
 0001:00005616       _GetCurrentProcess@0       10006616 f   kernel32:KERNEL32.dll
 0001:0000561c       _UnhandledExceptionFilter@4 1000661c f   kernel32:KERNEL32.dll
 0001:00005622       _SetUnhandledExceptionFilter@4 10006622 f   kernel32:KERNEL32.dll
 0001:00005628       _IsDebuggerPresent@0       10006628 f   kernel32:KERNEL32.dll
 0001:0000562e       _strlen                    1000662e f   MSVCRT:MSVCR90.dll
 0001:0000562e       ?strlen@@$$J0YAIPBD@Z      1000662e f   MSVCRT:MSVCR90.dll
 0001:00005634       ?_localtime64@@$$J0YAPAUtm@@PB_J@Z 10006634 f   MSVCRT:MSVCR90.dll
 0001:00005634       __localtime64              10006634 f   MSVCRT:MSVCR90.dll
 0001:0000563a       ?_time64@@$$J0YA_JPA_J@Z   1000663a f   MSVCRT:MSVCR90.dll
 0001:0000563a       __time64                   1000663a f   MSVCRT:MSVCR90.dll
 0001:00005640       ?memcpy@@$$J0YAPAXPAXPBXI@Z 10006640 f   MSVCRT:MSVCR90.dll
 0001:00005640       _memcpy                    10006640 f   MSVCRT:MSVCR90.dll
 0001:00005646       ?fscanf@@$$J0YAHPAU_iobuf@@PBDZZ 10006646 f   MSVCRT:MSVCR90.dll
 0001:00005646       _fscanf                    10006646 f   MSVCRT:MSVCR90.dll
 0001:0000564c       _tmpfile                   1000664c f   MSVCRT:MSVCR90.dll
 0001:0000564c       ?tmpfile@@$$J0YAPAU_iobuf@@XZ 1000664c f   MSVCRT:MSVCR90.dll
 0001:00005652       ?atan2@@$$J0YANNN@Z        10006652 f   MSVCRT:MSVCR90.dll
 0001:00005652       _atan2                     10006652 f   MSVCRT:MSVCR90.dll
 0001:00005658       ?strtod@@$$J0YANPBDPAPAD@Z 10006658 f   MSVCRT:MSVCR90.dll
 0001:00005658       _strtod                    10006658 f   MSVCRT:MSVCR90.dll
 0001:0000565e       _rename                    1000665e f   MSVCRT:MSVCR90.dll
 0001:0000565e       ?rename@@$$J0YAHPBD0@Z     1000665e f   MSVCRT:MSVCR90.dll
 0001:00005664       _sprintf                   10006664 f   MSVCRT:MSVCR90.dll
 0001:00005664       ?sprintf@@$$J0YAHPADPBDZZ  10006664 f   MSVCRT:MSVCR90.dll
 0001:0000566a       ?_mktime64@@$$J0YA_JPAUtm@@@Z 1000666a f   MSVCRT:MSVCR90.dll
 0001:0000566a       __mktime64                 1000666a f   MSVCRT:MSVCR90.dll
 0001:00005670       ?feof@@$$J0YAHPAU_iobuf@@@Z 10006670 f   MSVCRT:MSVCR90.dll
 0001:00005670       _feof                      10006670 f   MSVCRT:MSVCR90.dll
 0001:00005676       ?strncat@@$$J0YAPADPADPBDI@Z 10006676 f   MSVCRT:MSVCR90.dll
 0001:00005676       _strncat                   10006676 f   MSVCRT:MSVCR90.dll
 0001:0000567c       __gmtime64                 1000667c f   MSVCRT:MSVCR90.dll
 0001:0000567c       ?_gmtime64@@$$J0YAPAUtm@@PB_J@Z 1000667c f   MSVCRT:MSVCR90.dll
 0001:00005682       ?tmpnam@@$$J0YAPADPAD@Z    10006682 f   MSVCRT:MSVCR90.dll
 0001:00005682       _tmpnam                    10006682 f   MSVCRT:MSVCR90.dll
 0001:00005688       ?sqrt@@$$J0YANN@Z          10006688 f   MSVCRT:MSVCR90.dll
 0001:00005688       _sqrt                      10006688 f   MSVCRT:MSVCR90.dll
 0001:0000568e       ?cos@@$$J0YANN@Z           1000668e f   MSVCRT:MSVCR90.dll
 0001:0000568e       _cos                       1000668e f   MSVCRT:MSVCR90.dll
 0001:00005694       ?memcmp@@$$J0YAHPBX0I@Z    10006694 f   MSVCRT:MSVCR90.dll
 0001:00005694       _memcmp                    10006694 f   MSVCRT:MSVCR90.dll
 0001:0000569a       _ceil                      1000669a f   MSVCRT:MSVCR90.dll
 0001:0000569a       ?ceil@@$$J0YANN@Z          1000669a f   MSVCRT:MSVCR90.dll
 0001:000056a0       _modf                      100066a0 f   MSVCRT:MSVCR90.dll
 0001:000056a0       ?modf@@$$J0YANNPAN@Z       100066a0 f   MSVCRT:MSVCR90.dll
 0001:000056a6       _ldexp                     100066a6 f   MSVCRT:MSVCR90.dll
 0001:000056a6       ?ldexp@@$$J0YANNH@Z        100066a6 f   MSVCRT:MSVCR90.dll
 0001:000056ac       ?isspace@@$$J0YAHH@Z       100066ac f   MSVCRT:MSVCR90.dll
 0001:000056ac       _isspace                   100066ac f   MSVCRT:MSVCR90.dll
 0001:000056b2       ?_pclose@@$$J0YAHPAU_iobuf@@@Z 100066b2 f   MSVCRT:MSVCR90.dll
 0001:000056b2       __pclose                   100066b2 f   MSVCRT:MSVCR90.dll
 0001:000056b8       _pow                       100066b8 f   MSVCRT:MSVCR90.dll
 0001:000056b8       ?pow@@$$J0YANNN@Z          100066b8 f   MSVCRT:MSVCR90.dll
 0001:000056be       _strerror                  100066be f   MSVCRT:MSVCR90.dll
 0001:000056be       ?strerror@@$$J0YAPADH@Z    100066be f   MSVCRT:MSVCR90.dll
 0001:000056c4       __isatty                   100066c4 f   MSVCRT:MSVCR90.dll
 0001:000056c4       ?_isatty@@$$J0YAHH@Z       100066c4 f   MSVCRT:MSVCR90.dll
 0001:000056ca       ?log@@$$J0YANN@Z           100066ca f   MSVCRT:MSVCR90.dll
 0001:000056ca       _log                       100066ca f   MSVCRT:MSVCR90.dll
 0001:000056d0       _fputs                     100066d0 f   MSVCRT:MSVCR90.dll
 0001:000056d0       ?fputs@@$$J0YAHPBDPAU_iobuf@@@Z 100066d0 f   MSVCRT:MSVCR90.dll
 0001:000056d6       _ungetc                    100066d6 f   MSVCRT:MSVCR90.dll
 0001:000056d6       ?ungetc@@$$J0YAHHPAU_iobuf@@@Z 100066d6 f   MSVCRT:MSVCR90.dll
 0001:000056dc       _strstr                    100066dc f   MSVCRT:MSVCR90.dll
 0001:000056dc       ?strstr@@$$J0YAPBDPBD0@Z   100066dc f   MSVCRT:MSVCR90.dll
 0001:000056e2       ?__iob_func@@$$J0YAPAU_iobuf@@XZ 100066e2 f   MSVCRT:MSVCR90.dll
 0001:000056e2       ___iob_func                100066e2 f   MSVCRT:MSVCR90.dll
 0001:000056e8       ?strcpy@@$$J0YAPADPADPBD@Z 100066e8 f   MSVCRT:MSVCR90.dll
 0001:000056e8       _strcpy                    100066e8 f   MSVCRT:MSVCR90.dll
 0001:000056ee       ?__CxxRegisterExceptionObject@@$$J0YAHPAX0@Z 100066ee f   MSVCRT:MSVCR90.dll
 0001:000056ee       ___CxxRegisterExceptionObject 100066ee f   MSVCRT:MSVCR90.dll
 0001:000056f4       ?strchr@@$$J0YAPBDPBDH@Z   100066f4 f   MSVCRT:MSVCR90.dll
 0001:000056f4       _strchr                    100066f4 f   MSVCRT:MSVCR90.dll
 0001:000056fa       _signal                    100066fa f   MSVCRT:MSVCR90.dll
 0001:000056fa       ?signal@@$$J0YAP6AXH@ZHP6AXH@Z@Z 100066fa f   MSVCRT:MSVCR90.dll
 0001:00005700       _memchr                    10006700 f   MSVCRT:MSVCR90.dll
 0001:00005700       ?memchr@@$$J0YAPBXPBXHI@Z  10006700 f   MSVCRT:MSVCR90.dll
 0001:00005706       ?fflush@@$$J0YAHPAU_iobuf@@@Z 10006706 f   MSVCRT:MSVCR90.dll
 0001:00005706       _fflush                    10006706 f   MSVCRT:MSVCR90.dll
 0001:0000570c       ?tanh@@$$J0YANN@Z          1000670c f   MSVCRT:MSVCR90.dll
 0001:0000570c       _tanh                      1000670c f   MSVCRT:MSVCR90.dll
 0001:00005712       ?_popen@@$$J0YAPAU_iobuf@@PBD0@Z 10006712 f   MSVCRT:MSVCR90.dll
 0001:00005712       __popen                    10006712 f   MSVCRT:MSVCR90.dll
 0001:00005718       _system                    10006718 f   MSVCRT:MSVCR90.dll
 0001:00005718       ?system@@$$J0YAHPBD@Z      10006718 f   MSVCRT:MSVCR90.dll
 0001:0000571e       __errno                    1000671e f   MSVCRT:MSVCR90.dll
 0001:0000571e       ?_errno@@$$J0YAPAHXZ       1000671e f   MSVCRT:MSVCR90.dll
 0001:00005724       _localeconv                10006724 f   MSVCRT:MSVCR90.dll
 0001:00005724       ?localeconv@@$$J0YAPAUlconv@@XZ 10006724 f   MSVCRT:MSVCR90.dll
 0001:0000572a       ?remove@@$$J0YAHPBD@Z      1000672a f   MSVCRT:MSVCR90.dll
 0001:0000572a       _remove                    1000672a f   MSVCRT:MSVCR90.dll
 0001:00005730       ?sinh@@$$J0YANN@Z          10006730 f   MSVCRT:MSVCR90.dll
 0001:00005730       _sinh                      10006730 f   MSVCRT:MSVCR90.dll
 0001:00005736       ?isalnum@@$$J0YAHH@Z       10006736 f   MSVCRT:MSVCR90.dll
 0001:00005736       _isalnum                   10006736 f   MSVCRT:MSVCR90.dll
 0001:0000573c       ?tan@@$$J0YANN@Z           1000673c f   MSVCRT:MSVCR90.dll
 0001:0000573c       _tan                       1000673c f   MSVCRT:MSVCR90.dll
 0001:00005742       _ispunct                   10006742 f   MSVCRT:MSVCR90.dll
 0001:00005742       ?ispunct@@$$J0YAHH@Z       10006742 f   MSVCRT:MSVCR90.dll
 0001:00005748       ?strcoll@@$$J0YAHPBD0@Z    10006748 f   MSVCRT:MSVCR90.dll
 0001:00005748       _strcoll                   10006748 f   MSVCRT:MSVCR90.dll
 0001:0000574e       _tolower                   1000674e f   MSVCRT:MSVCR90.dll
 0001:0000574e       ?tolower@@$$J0YAHH@Z       1000674e f   MSVCRT:MSVCR90.dll
 0001:00005754       ?strncpy@@$$J0YAPADPADPBDI@Z 10006754 f   MSVCRT:MSVCR90.dll
 0001:00005754       _strncpy                   10006754 f   MSVCRT:MSVCR90.dll
 0001:0000575a       ?fgets@@$$J0YAPADPADHPAU_iobuf@@@Z 1000675a f   MSVCRT:MSVCR90.dll
 0001:0000575a       _fgets                     1000675a f   MSVCRT:MSVCR90.dll
 0001:00005760       ?fmod@@$$J0YANNN@Z         10006760 f   MSVCRT:MSVCR90.dll
 0001:00005760       _fmod                      10006760 f   MSVCRT:MSVCR90.dll
 0001:00005766       _fopen                     10006766 f   MSVCRT:MSVCR90.dll
 0001:00005766       ?fopen@@$$J0YAPAU_iobuf@@PBD0@Z 10006766 f   MSVCRT:MSVCR90.dll
 0001:0000576c       _setvbuf                   1000676c f   MSVCRT:MSVCR90.dll
 0001:0000576c       ?setvbuf@@$$J0YAHPAU_iobuf@@PADHI@Z 1000676c f   MSVCRT:MSVCR90.dll
 0001:00005772       ?isalpha@@$$J0YAHH@Z       10006772 f   MSVCRT:MSVCR90.dll
 0001:00005772       _isalpha                   10006772 f   MSVCRT:MSVCR90.dll
 0001:00005778       ?fread@@$$J0YAIPAXIIPAU_iobuf@@@Z 10006778 f   MSVCRT:MSVCR90.dll
 0001:00005778       _fread                     10006778 f   MSVCRT:MSVCR90.dll
 0001:0000577e       ?__CxxExceptionFilter@@$$J0YAHPAX0H0@Z 1000677e f   MSVCRT:MSVCR90.dll
 0001:0000577e       ___CxxExceptionFilter      1000677e f   MSVCRT:MSVCR90.dll
 0001:00005784       ?fprintf@@$$J0YAHPAU_iobuf@@PBDZZ 10006784 f   MSVCRT:MSVCR90.dll
 0001:00005784       _fprintf                   10006784 f   MSVCRT:MSVCR90.dll
 0001:0000578a       _clock                     1000678a f   MSVCRT:MSVCR90.dll
 0001:0000578a       ?clock@@$$J0YAJXZ          1000678a f   MSVCRT:MSVCR90.dll
 0001:00005790       _rand                      10006790 f   MSVCRT:MSVCR90.dll
 0001:00005790       ?rand@@$$J0YAHXZ           10006790 f   MSVCRT:MSVCR90.dll
 0001:00005796       ?strcmp@@$$J0YAHPBD0@Z     10006796 f   MSVCRT:MSVCR90.dll
 0001:00005796       _strcmp                    10006796 f   MSVCRT:MSVCR90.dll
 0001:0000579c       _srand                     1000679c f   MSVCRT:MSVCR90.dll
 0001:0000579c       ?srand@@$$J0YAXI@Z         1000679c f   MSVCRT:MSVCR90.dll
 0001:000057a2       _isdigit                   100067a2 f   MSVCRT:MSVCR90.dll
 0001:000057a2       ?isdigit@@$$J0YAHH@Z       100067a2 f   MSVCRT:MSVCR90.dll
 0001:000057a8       ?cosh@@$$J0YANN@Z          100067a8 f   MSVCRT:MSVCR90.dll
 0001:000057a8       _cosh                      100067a8 f   MSVCRT:MSVCR90.dll
 0001:000057ae       _acos                      100067ae f   MSVCRT:MSVCR90.dll
 0001:000057ae       ?acos@@$$J0YANN@Z          100067ae f   MSVCRT:MSVCR90.dll
 0001:000057b4       ___CxxUnregisterExceptionObject 100067b4 f   MSVCRT:MSVCR90.dll
 0001:000057b4       ?__CxxUnregisterExceptionObject@@$$J0YAXPAXH@Z 100067b4 f   MSVCRT:MSVCR90.dll
 0001:000057ba       ?strftime@@$$J0YAIPADIPBDPBUtm@@@Z 100067ba f   MSVCRT:MSVCR90.dll
 0001:000057ba       _strftime                  100067ba f   MSVCRT:MSVCR90.dll
 0001:000057c0       _floor                     100067c0 f   MSVCRT:MSVCR90.dll
 0001:000057c0       ?floor@@$$J0YANN@Z         100067c0 f   MSVCRT:MSVCR90.dll
 0001:000057c6       ?_fileno@@$$J0YAHPAU_iobuf@@@Z 100067c6 f   MSVCRT:MSVCR90.dll
 0001:000057c6       __fileno                   100067c6 f   MSVCRT:MSVCR90.dll
 0001:000057cc       _frexp                     100067cc f   MSVCRT:MSVCR90.dll
 0001:000057cc       ?frexp@@$$J0YANNPAH@Z      100067cc f   MSVCRT:MSVCR90.dll
 0001:000057d2       ?log10@@$$J0YANN@Z         100067d2 f   MSVCRT:MSVCR90.dll
 0001:000057d2       _log10                     100067d2 f   MSVCRT:MSVCR90.dll
 0001:000057d8       ?isupper@@$$J0YAHH@Z       100067d8 f   MSVCRT:MSVCR90.dll
 0001:000057d8       _isupper                   100067d8 f   MSVCRT:MSVCR90.dll
 0001:000057de       _atan                      100067de f   MSVCRT:MSVCR90.dll
 0001:000057de       ?atan@@$$J0YANN@Z          100067de f   MSVCRT:MSVCR90.dll
 0001:000057e4       ?ferror@@$$J0YAHPAU_iobuf@@@Z 100067e4 f   MSVCRT:MSVCR90.dll
 0001:000057e4       _ferror                    100067e4 f   MSVCRT:MSVCR90.dll
 0001:000057ea       _iscntrl                   100067ea f   MSVCRT:MSVCR90.dll
 0001:000057ea       ?iscntrl@@$$J0YAHH@Z       100067ea f   MSVCRT:MSVCR90.dll
 0001:000057f0       _fwrite                    100067f0 f   MSVCRT:MSVCR90.dll
 0001:000057f0       ?fwrite@@$$J0YAIPBXIIPAU_iobuf@@@Z 100067f0 f   MSVCRT:MSVCR90.dll
 0001:000057f6       _strrchr                   100067f6 f   MSVCRT:MSVCR90.dll
 0001:000057f6       ?strrchr@@$$J0YAPBDPBDH@Z  100067f6 f   MSVCRT:MSVCR90.dll
 0001:000057fc       _toupper                   100067fc f   MSVCRT:MSVCR90.dll
 0001:000057fc       ?toupper@@$$J0YAHH@Z       100067fc f   MSVCRT:MSVCR90.dll
 0001:00005802       ?ftell@@$$J0YAJPAU_iobuf@@@Z 10006802 f   MSVCRT:MSVCR90.dll
 0001:00005802       _ftell                     10006802 f   MSVCRT:MSVCR90.dll
 0001:00005808       __CxxThrowException@8      10006808 f   MSVCRT:MSVCR90.dll
 0001:00005808       ?_CxxThrowException@@$$J18YGXPAXPBU_s__ThrowInfo@@@Z 10006808 f   MSVCRT:MSVCR90.dll
 0001:0000580e       _exp                       1000680e f   MSVCRT:MSVCR90.dll
 0001:0000580e       ?exp@@$$J0YANN@Z           1000680e f   MSVCRT:MSVCR90.dll
 0001:00005814       ?freopen@@$$J0YAPAU_iobuf@@PBD0PAU1@@Z 10006814 f   MSVCRT:MSVCR90.dll
 0001:00005814       _freopen                   10006814 f   MSVCRT:MSVCR90.dll
 0001:0000581a       _strcspn                   1000681a f   MSVCRT:MSVCR90.dll
 0001:0000581a       ?strcspn@@$$J0YAIPBD0@Z    1000681a f   MSVCRT:MSVCR90.dll
 0001:00005820       _islower                   10006820 f   MSVCRT:MSVCR90.dll
 0001:00005820       ?islower@@$$J0YAHH@Z       10006820 f   MSVCRT:MSVCR90.dll
 0001:00005826       _realloc                   10006826 f   MSVCRT:MSVCR90.dll
 0001:00005826       ?realloc@@$$J0YAPAXPAXI@Z  10006826 f   MSVCRT:MSVCR90.dll
 0001:0000582c       ?setlocale@@$$J0YAPADHPBD@Z 1000682c f   MSVCRT:MSVCR90.dll
 0001:0000582c       _setlocale                 1000682c f   MSVCRT:MSVCR90.dll
 0001:00005832       _strtoul                   10006832 f   MSVCRT:MSVCR90.dll
 0001:00005832       ?strtoul@@$$J0YAKPBDPAPADH@Z 10006832 f   MSVCRT:MSVCR90.dll
 0001:00005838       ?fseek@@$$J0YAHPAU_iobuf@@JH@Z 10006838 f   MSVCRT:MSVCR90.dll
 0001:00005838       _fseek                     10006838 f   MSVCRT:MSVCR90.dll
 0001:0000583e       _getenv                    1000683e f   MSVCRT:MSVCR90.dll
 0001:0000583e       ?getenv@@$$J0YAPADPBD@Z    1000683e f   MSVCRT:MSVCR90.dll
 0001:00005844       _strpbrk                   10006844 f   MSVCRT:MSVCR90.dll
 0001:00005844       ?strpbrk@@$$J0YAPBDPBD0@Z  10006844 f   MSVCRT:MSVCR90.dll
 0001:0000584a       _abs                       1000684a f   MSVCRT:MSVCR90.dll
 0001:0000584a       ?abs@@$$J0YAHH@Z           1000684a f   MSVCRT:MSVCR90.dll
 0001:00005850       ?fclose@@$$J0YAHPAU_iobuf@@@Z 10006850 f   MSVCRT:MSVCR90.dll
 0001:00005850       _fclose                    10006850 f   MSVCRT:MSVCR90.dll
 0001:00005856       ?isxdigit@@$$J0YAHH@Z      10006856 f   MSVCRT:MSVCR90.dll
 0001:00005856       _isxdigit                  10006856 f   MSVCRT:MSVCR90.dll
 0001:0000585c       ?getc@@$$J0YAHPAU_iobuf@@@Z 1000685c f   MSVCRT:MSVCR90.dll
 0001:0000585c       _getc                      1000685c f   MSVCRT:MSVCR90.dll
 0001:00005862       ?_difftime64@@$$J0YAN_J0@Z 10006862 f   MSVCRT:MSVCR90.dll
 0001:00005862       __difftime64               10006862 f   MSVCRT:MSVCR90.dll
 0001:00005868       ?fabs@@$$J0YANN@Z          10006868 f   MSVCRT:MSVCR90.dll
 0001:00005868       _fabs                      10006868 f   MSVCRT:MSVCR90.dll
 0001:0000586e       ?__CxxDetectRethrow@@$$J0YAHPAX@Z 1000686e f   MSVCRT:MSVCR90.dll
 0001:0000586e       ___CxxDetectRethrow        1000686e f   MSVCRT:MSVCR90.dll
 0001:00005874       ?__CxxQueryExceptionSize@@$$J0YAHXZ 10006874 f   MSVCRT:MSVCR90.dll
 0001:00005874       ___CxxQueryExceptionSize   10006874 f   MSVCRT:MSVCR90.dll
 0001:0000587a       ?clearerr@@$$J0YAXPAU_iobuf@@@Z 1000687a f   MSVCRT:MSVCR90.dll
 0001:0000587a       _clearerr                  1000687a f   MSVCRT:MSVCR90.dll
 0001:00005880       ?strcat@@$$J0YAPADPADPBD@Z 10006880 f   MSVCRT:MSVCR90.dll
 0001:00005880       _strcat                    10006880 f   MSVCRT:MSVCR90.dll
 0001:00005886       _exit                      10006886 f   MSVCRT:MSVCR90.dll
 0001:00005886       ?exit@@$$J0YAXH@Z          10006886 f   MSVCRT:MSVCR90.dll
 0001:0000588c       ?asin@@$$J0YANN@Z          1000688c f   MSVCRT:MSVCR90.dll
 0001:0000588c       _asin                      1000688c f   MSVCRT:MSVCR90.dll
 0001:00005892       _sin                       10006892 f   MSVCRT:MSVCR90.dll
 0001:00005892       ?sin@@$$J0YANN@Z           10006892 f   MSVCRT:MSVCR90.dll
 0001:00005898       __cexit                    10006898 f   MSVCRT:MSVCR90.dll
 0001:00005898       ?_cexit@@$$J0YAXXZ         10006898 f   MSVCRT:MSVCR90.dll
 0001:0000589e       ___FrameUnwindFilter       1000689e f   MSVCRT:MSVCR90.dll
 0001:0000589e       ?__FrameUnwindFilter@@$$J0YAHPAU_EXCEPTION_POINTERS@@@Z 1000689e f   MSVCRT:MSVCR90.dll
 0001:000058a4       ?signal@@YAP6MXH@ZHP6MXH@Z@Z 100068a4 f   MSVCMRT:msvcm90.dll
 0001:000058a4       ?signal@@$$FYAP6MXH@ZHP6MXH@Z@Z 100068a4 f   MSVCMRT:msvcm90.dll
 0001:000058aa       ?DoCallBackInDefaultDomain@<CrtImplementationDetails>@@YAXP6GJPAX@Z0@Z 100068aa f   MSVCMRT:msvcm90.dll
 0001:000058aa       ?DoCallBackInDefaultDomain@<CrtImplementationDetails>@@$$FYAXP6GJPAX@Z0@Z 100068aa f   MSVCMRT:msvcm90.dll
 0001:000058b0       ?ThrowNestedModuleLoadException@<CrtImplementationDetails>@@YAXP$AAVException@System@@0@Z 100068b0 f   MSVCMRT:msvcm90.dll
 0001:000058b0       ?ThrowNestedModuleLoadException@<CrtImplementationDetails>@@$$FYAXP$AAVException@System@@0@Z 100068b0 f   MSVCMRT:msvcm90.dll
 0001:000058b6       ?ThrowModuleLoadException@<CrtImplementationDetails>@@YAXP$AAVString@System@@@Z 100068b6 f   MSVCMRT:msvcm90.dll
 0001:000058b6       ?ThrowModuleLoadException@<CrtImplementationDetails>@@$$FYAXP$AAVString@System@@@Z 100068b6 f   MSVCMRT:msvcm90.dll
 0001:000058bc       ?RegisterModuleUninitializer@<CrtImplementationDetails>@@YAXP$AAVEventHandler@System@@@Z 100068bc f   MSVCMRT:msvcm90.dll
 0001:000058bc       ?RegisterModuleUninitializer@<CrtImplementationDetails>@@$$FYAXP$AAVEventHandler@System@@@Z 100068bc f   MSVCMRT:msvcm90.dll
 0001:000058c2       ?DoDllLanguageSupportValidation@<CrtImplementationDetails>@@YAXXZ 100068c2 f   MSVCMRT:msvcm90.dll
 0001:000058c2       ?DoDllLanguageSupportValidation@<CrtImplementationDetails>@@$$FYAXXZ 100068c2 f   MSVCMRT:msvcm90.dll
 0001:000058c8       ?ThrowModuleLoadException@<CrtImplementationDetails>@@YAXP$AAVString@System@@P$AAVException@3@@Z 100068c8 f   MSVCMRT:msvcm90.dll
 0001:000058c8       ?ThrowModuleLoadException@<CrtImplementationDetails>@@$$FYAXP$AAVString@System@@P$AAVException@3@@Z 100068c8 f   MSVCMRT:msvcm90.dll
 0001:000058ce       ?FreeLibrary@@$$J14YGHPAUHINSTANCE__@@@Z 100068ce f   kernel32:KERNEL32.dll
 0001:000058ce       _FreeLibrary@4             100068ce f   kernel32:KERNEL32.dll
 0001:000058d4       _FormatMessageA@28         100068d4 f   kernel32:KERNEL32.dll
 0001:000058d4       ?FormatMessageA@@$$J228YGKKPBXKKPADKPAPAD@Z 100068d4 f   kernel32:KERNEL32.dll
 0001:000058da       ?GetLastError@@$$J10YGKXZ  100068da f   kernel32:KERNEL32.dll
 0001:000058da       _GetLastError@0            100068da f   kernel32:KERNEL32.dll
 0001:000058e0       ?GetProcAddress@@$$J18YGP6GHXZPAUHINSTANCE__@@PBD@Z 100068e0 f   kernel32:KERNEL32.dll
 0001:000058e0       _GetProcAddress@8          100068e0 f   kernel32:KERNEL32.dll
 0001:000058e6       ?LoadLibraryA@@$$J14YGPAUHINSTANCE__@@PBD@Z 100068e6 f   kernel32:KERNEL32.dll
 0001:000058e6       _LoadLibraryA@4            100068e6 f   kernel32:KERNEL32.dll
 0001:000058ec       ?GetModuleFileNameA@@$$J212YGKPAUHINSTANCE__@@PADK@Z 100068ec f   kernel32:KERNEL32.dll
 0001:000058ec       _GetModuleFileNameA@12     100068ec f   kernel32:KERNEL32.dll
 0001:000058f4       ?luaZ_init@@$$FYGXPAUlua_State@@PAUZio@@P6GPBD0PAXPAI@Z2@Z 100068f4 f   luaglue.obj
 0001:0000591c       ?luaZ_fill@@$$FYGHPAUZio@@@Z 1000691c f   luaglue.obj
 0001:00005968       ?l_strcmp@?A0xd55f0479@@$$FYGHPBTTString@@0@Z 10006968 f   luaglue.obj
 0001:000059dc       ?luaU_header@@$$FYGXPAD@Z  100069dc f   luaglue.obj
 0001:00005a40       ?collectargs@?A0xd55f0479@@$$FYGHPAPADPAH11@Z 10006a40 f   luaglue.obj
 0001:00005cd8       ?l_message@?A0xd55f0479@@$$FYGXPBD0@Z 10006cd8 f   luaglue.obj
 0001:00005d20       ?print_usage@?A0xd55f0479@@$$FYGXXZ 10006d20 f   luaglue.obj
 0001:00005d54       ?luaH_set@@$$FYGPAUlua_TValue@@PAUlua_State@@PAUTable@@PBU1@@Z 10006d54 f   luaglue.obj
 0001:00005db0       ?luaH_getstr@@$$FYGPBUlua_TValue@@PAUTable@@PATTString@@@Z 10006db0 f   luaglue.obj
 0001:00005df8       ?getfreepos@?A0xd55f0479@@$$FYGPAUNode@@PAUTable@@@Z 10006df8 f   luaglue.obj
 0001:00005e38       ?numusearray@?A0xd55f0479@@$$FYGHPBUTable@@PAH@Z 10006e38 f   luaglue.obj
 0001:00005eb8       ?computesizes@?A0xd55f0479@@$$FYGHQAHPAH@Z 10006eb8 f   luaglue.obj
 0001:00005f10       ?hashnum@?A0xd55f0479@@$$FYGPAUNode@@PBUTable@@N@Z 10006f10 f   luaglue.obj
 0001:00005f74       ?addintlen@?A0xd55f0479@@$$FYGXPAD@Z 10006f74 f   luaglue.obj
 0001:00005fb4       ?scanformat@?A0xd55f0479@@$$FYGPBDPAUlua_State@@PBDPAD@Z 10006fb4 f   luaglue.obj
 0001:0000606c       ?gfind_nodef@?A0xd55f0479@@$$FYGHPAUlua_State@@@Z 1000706c f   luaglue.obj
 0001:00006088       ?lmemfind@?A0xd55f0479@@$$FYGPBDPBDI0I@Z 10007088 f   luaglue.obj
 0001:000060e4       ?start_capture@?A0xd55f0479@@$$FYGPBDPAUMatchState@@PBD1H@Z 100070e4 f   luaglue.obj
 0001:00006144       ?matchbalance@?A0xd55f0479@@$$FYGPBDPAUMatchState@@PBD1@Z 10007144 f   luaglue.obj
 0001:000061ac       ?match_class@?A0xd55f0479@@$$FYGHHH@Z 100071ac f   luaglue.obj
 0001:000062b4       ?classend@?A0xd55f0479@@$$FYGPBDPAUMatchState@@PBD@Z 100072b4 f   luaglue.obj
 0001:00006330       ?capture_to_close@?A0xd55f0479@@$$FYGHPAUMatchState@@@Z 10007330 f   luaglue.obj
 0001:00006378       ?check_capture@?A0xd55f0479@@$$FYGHPAUMatchState@@H@Z 10007378 f   luaglue.obj
 0001:000063bc       ?posrelat@?A0xd55f0479@@$$FYGHHI@Z 100073bc f   luaglue.obj
 0001:000063e0       ?preinit_state@?A0xd55f0479@@$$FYGXPAUlua_State@@PAUglobal_State@@@Z 100073e0 f   luaglue.obj
 0001:00006464       ?block_follow@?A0xd55f0479@@$$FYGHH@Z 10007464 f   luaglue.obj
 0001:000064fc       ?getbinopr@?A0xd55f0479@@$$FYG?AW4BinOpr@@H@Z 100074fc f   luaglue.obj
 0001:0000693c       ?getunopr@?A0xd55f0479@@$$FYG?AW4UnOpr@@H@Z 1000793c f   luaglue.obj
 0001:00006970       ?enterblock@?A0xd55f0479@@$$FYGXPAUFuncState@@PAUBlockCnt@@E@Z 10007970 f   luaglue.obj
 0001:000069a4       ?markupval@?A0xd55f0479@@$$FYGXPAUFuncState@@H@Z 100079a4 f   luaglue.obj
 0001:000069d0       ?searchvar@?A0xd55f0479@@$$FYGHPAUFuncState@@PATTString@@@Z 100079d0 f   luaglue.obj
 0001:00006a14       ?removevars@?A0xd55f0479@@$$FYGXPAULexState@@H@Z 10007a14 f   luaglue.obj
 0001:00006a60       ?adjustlocalvars@?A0xd55f0479@@$$FYGXPAULexState@@H@Z 10007a60 f   luaglue.obj
 0001:00006ab0       ?init_exp@?A0xd55f0479@@$$FYGXPAUexpdesc@@W4expkind@@H@Z 10007ab0 f   luaglue.obj
 0001:00006ad4       ?time@?A0xd55f0479@@$$J0YA_JPA_J@Z 10007ad4 f   luaglue.obj
 0001:00006aec       ?mktime@?A0xd55f0479@@$$J0YA_JPAUtm@@@Z 10007aec f   luaglue.obj
 0001:00006b04       ?localtime@?A0xd55f0479@@$$J0YAPAUtm@@PB_J@Z 10007b04 f   luaglue.obj
 0001:00006b1c       ?gmtime@?A0xd55f0479@@$$J0YAPAUtm@@PB_J@Z 10007b1c f   luaglue.obj
 0001:00006b34       ?difftime@?A0xd55f0479@@$$J0YAN_J0@Z 10007b34 f   luaglue.obj
 0001:00006b4c       ?luaO_chunkid@@$$FYGXPADPBDI@Z 10007b4c f   luaglue.obj
 0001:00006c10       ?luaO_str2d@@$$FYGHPBDPAN@Z 10007c10 f   luaglue.obj
 0001:00006c6c       ?luaO_rawequalObj@@$$FYGHPBUlua_TValue@@0@Z 10007c6c f   luaglue.obj
 0001:00006cdc       ?luaO_log2@@$$FYGHI@Z      10007cdc f   luaglue.obj
 0001:00006d0c       ?luaO_fb2int@@$$FYGHH@Z    10007d0c f   luaglue.obj
 0001:00006d34       ?luaO_int2fb@@$$FYGHI@Z    10007d34 f   luaglue.obj
 0001:00006d68       ?readable@?A0xd55f0479@@$$FYGHPBD@Z 10007d68 f   luaglue.obj
 0001:00006d94       ?ll_unloadlib@?A0xd55f0479@@$$FYGXPAX@Z 10007d94 f   luaglue.obj
 0001:00006da8       ?luaM_toobig@@$$FYGPAXPAUlua_State@@@Z 10007da8 f   luaglue.obj
 0001:00006dc4       ?buffreplace@?A0xd55f0479@@$$FYGXPAULexState@@DD@Z 10007dc4 f   luaglue.obj
 0001:00006df8       ?luaX_token2str@@$$FYGPBDPAULexState@@H@Z 10007df8 f   luaglue.obj
 0001:00006e4c       ?luaC_link@@$$FYGXPAUlua_State@@PATGCObject@@E@Z 10007e4c f   luaglue.obj
 0001:00006e7c       ?luaC_barrierback@@$$FYGXPAUlua_State@@PAUTable@@@Z 10007e7c f   luaglue.obj
 0001:00006eb0       ?iscleared@?A0xd55f0479@@$$FYGHPBUlua_TValue@@H@Z 10007eb0 f   luaglue.obj
 0001:00006f08       ?reallymarkobject@?A0xd55f0479@@$$FYGXPAUglobal_State@@PATGCObject@@@Z 10007f08 f   luaglue.obj
 0001:00007014       ?removeentry@?A0xd55f0479@@$$FYGXPAUNode@@@Z 10008014 f   luaglue.obj
 0001:00007030       ?luaF_getlocalname@@$$FYGPBDPBUProto@@HH@Z 10008030 f   luaglue.obj
 0001:0000708c       ?unlinkupval@?A0xd55f0479@@$$FYGXPAUUpVal@@@Z 1000808c f   luaglue.obj
 0001:000070b8       ?DumpBlock@?A0xd55f0479@@$$FYGXPBXIPAUDumpState@@@Z 100080b8 f   luaglue.obj
 0001:000070e4       ?lua_yield@@$$FYGHPAUlua_State@@H@Z 100080e4 f   luaglue.obj
 0001:00007120       ?luaD_reallocCI@@$$FYGXPAUlua_State@@H@Z 10008120 f   luaglue.obj
 0001:00007198       ?correctstack@?A0xd55f0479@@$$FYGXPAUlua_State@@PAUlua_TValue@@@Z 10008198 f   luaglue.obj
 0001:00007248       ?luaD_rawrunprotected@@$$FYGHPAUlua_State@@P6GX0PAX@Z1@Z 10008248 f   luaglue.obj
 0001:0000733c       ?restore_stack_limit@?A0xd55f0479@@$$FYGXPAUlua_State@@@Z 1000833c f   luaglue.obj
 0001:0000737c       ?luaG_ordererror@@$$FYGHPAUlua_State@@PBUlua_TValue@@1@Z 1000837c f   luaglue.obj
 0001:000073d0       ?isinstack@?A0xd55f0479@@$$FYGHPAUCallInfo@@PBUlua_TValue@@@Z 100083d0 f   luaglue.obj
 0001:000073fc       ?kname@?A0xd55f0479@@$$FYGPBDPAUProto@@H@Z 100083fc f   luaglue.obj
 0001:00007444       ?checkArgMode@?A0xd55f0479@@$$FYGHPBUProto@@HW4OpArgMask@@@Z 10008444 f   luaglue.obj
 0001:000074b4       ?luaG_checkopenop@@$$FYGHI@Z 100084b4 f   luaglue.obj
 0001:000074f0       ?precheck@?A0xd55f0479@@$$FYGHPBUProto@@@Z 100084f0 f   luaglue.obj
 0001:0000758c       ?info_tailcall@?A0xd55f0479@@$$FYGXPAUlua_Debug@@@Z 1000858c f   luaglue.obj
 0001:000075e8       ?funcinfo@?A0xd55f0479@@$$FYGXPAUlua_Debug@@PATClosure@@@Z 100085e8 f   luaglue.obj
 0001:00007678       ?getluaproto@?A0xd55f0479@@$$FYGPAUProto@@PAUCallInfo@@@Z 10008678 f   luaglue.obj
 0001:000076ac       ?lua_getstack@@$$FYGHPAUlua_State@@HPAUlua_Debug@@@Z 100086ac f   luaglue.obj
 0001:00007720       ?lua_gethookcount@@$$FYGHPAUlua_State@@@Z 10008720 f   luaglue.obj
 0001:00007734       ?lua_gethookmask@@$$FYGHPAUlua_State@@@Z 10008734 f   luaglue.obj
 0001:00007748       ?lua_gethook@@$$FYGP6GXPAUlua_State@@PAUlua_Debug@@@Z0@Z 10008748 f   luaglue.obj
 0001:0000775c       ?lua_sethook@@$$FYGHPAUlua_State@@P6GX0PAUlua_Debug@@@ZHH@Z 1000875c f   luaglue.obj
 0001:00007794       ?currentpc@?A0xd55f0479@@$$FYGHPAUlua_State@@PAUCallInfo@@@Z 10008794 f   luaglue.obj
 0001:000077e4       ?unmakemask@?A0xd55f0479@@$$FYGPADHPAD@Z 100087e4 f   luaglue.obj
 0001:00007828       ?makemask@?A0xd55f0479@@$$FYGHPBDH@Z 10008828 f   luaglue.obj
 0001:0000786c       ?luaK_fixline@@$$FYGXPAUFuncState@@H@Z 1000886c f   luaglue.obj
 0001:0000788c       ?luaK_setoneret@@$$FYGXPAUFuncState@@PAUexpdesc@@@Z 1000888c f   luaglue.obj
 0001:000078f4       ?freereg@?A0xd55f0479@@$$FYGXPAUFuncState@@H@Z 100088f4 f   luaglue.obj
 0001:00007920       ?getjumpcontrol@?A0xd55f0479@@$$FYGPAIPAUFuncState@@H@Z 10008920 f   luaglue.obj
 0001:0000795c       ?getjump@?A0xd55f0479@@$$FYGHPAUFuncState@@H@Z 1000895c f   luaglue.obj
 0001:00007994       ?luaK_getlabel@@$$FYGHPAUFuncState@@@Z 10008994 f   luaglue.obj
 0001:000079b4       ?isnumeral@?A0xd55f0479@@$$FYGHPAUexpdesc@@@Z 100089b4 f   luaglue.obj
 0001:000079e0       ?l_alloc@?A0xd55f0479@@$$FYGPAXPAX0II@Z 100089e0 f   luaglue.obj
 0001:00007a04       ?getS@?A0xd55f0479@@$$FYGPBDPAUlua_State@@PAXPAI@Z 10008a04 f   luaglue.obj
 0001:00007a2c       ?getF@?A0xd55f0479@@$$FYGPBDPAUlua_State@@PAXPAI@Z 10008a2c f   luaglue.obj
 0001:00007a80       ?luaL_buffinit@@$$FYGXPAUlua_State@@PAUluaL_Buffer@@@Z 10008a80 f   luaglue.obj
 0001:00007aa0       ?libsize@?A0xd55f0479@@$$FYGHPBUluaL_Reg@@@Z 10008aa0 f   luaglue.obj
 0001:00007ac4       ?aux_upvalue@?A0xd55f0479@@$$FYGPBDPAUlua_TValue@@HPAPAU2@@Z 10008ac4 f   luaglue.obj
 0001:00007b40       ?lua_setallocf@@$$FYGXPAUlua_State@@P6GPAXPAX1II@Z1@Z 10008b40 f   luaglue.obj
 0001:00007b64       ?lua_getallocf@@$$FYGP6GPAXPAX0II@ZPAUlua_State@@PAPAX@Z 10008b64 f   luaglue.obj
 0001:00007b8c       ?lua_status@@$$FYGHPAUlua_State@@@Z 10008b8c f   luaglue.obj
 0001:00007ba0       ?lua_pushthread@@$$FYGHPAUlua_State@@@Z 10008ba0 f   luaglue.obj
 0001:00007bd8       ?lua_pushlightuserdata@@$$FYGXPAUlua_State@@PAX@Z 10008bd8 f   luaglue.obj
 0001:00007c00       ?lua_pushboolean@@$$FYGXPAUlua_State@@H@Z 10008c00 f   luaglue.obj
 0001:00007c30       ?lua_pushinteger@@$$FYGXPAUlua_State@@H@Z 10008c30 f   luaglue.obj
 0001:00007c58       ?lua_pushnumber@@$$FYGXPAUlua_State@@N@Z 10008c58 f   luaglue.obj
 0001:00007c80       ?lua_pushnil@@$$FYGXPAUlua_State@@@Z 10008c80 f   luaglue.obj
 0001:00007ca0       ?lua_typename@@$$FYGPBDPAUlua_State@@H@Z 10008ca0 f   luaglue.obj
 0001:00007cc4       ?lua_settop@@$$FYGXPAUlua_State@@H@Z 10008cc4 f   luaglue.obj
 0001:00007d1c       ?lua_gettop@@$$FYGHPAUlua_State@@@Z 10008d1c f   luaglue.obj
 0001:00007d38       ?lua_atpanic@@$$FYGP6GHPAUlua_State@@@Z0P6GH0@Z@Z 10008d38 f   luaglue.obj
 0001:00007d5c       ?lua_setlevel@@$$FYGXPAUlua_State@@0@Z 10008d5c f   luaglue.obj
 0001:00007d74       ?lua_xmove@@$$FYGXPAUlua_State@@0H@Z 10008d74 f   luaglue.obj
 0001:00007dcc       ?luaA_pushobject@@$$FYGXPAUlua_State@@PBUlua_TValue@@@Z 10008dcc f   luaglue.obj
 0001:00007df8       ?getcurrenv@?A0xd55f0479@@$$FYGPAUTable@@PAUlua_State@@@Z 10008df8 f   luaglue.obj
 0001:00007e2c       ?index2adr@?A0xd55f0479@@$$FYGPAUlua_TValue@@PAUlua_State@@H@Z 10008e2c f   luaglue.obj
 0001:00007f00       ?luaZ_lookahead@@$$FYGHPAUZio@@@Z 10008f00 f   luaglue.obj
 0001:00007f38       ?luaV_tonumber@@$$FYGPBUlua_TValue@@PBU1@PAU1@@Z 10008f38 f   luaglue.obj
 0001:00007f78       ?print_version@?A0xd55f0479@@$$FYGXXZ 10008f78 f   luaglue.obj
 0001:00007f90       ?lstop@?A0xd55f0479@@$$FYGXPAUlua_State@@PAUlua_Debug@@@Z 10008f90 f   luaglue.obj
 0001:00007fb4       ?luaT_gettmbyobj@@$$FYGPBUlua_TValue@@PAUlua_State@@PBU1@W4TMS@@@Z 10008fb4 f   luaglue.obj
 0001:00008018       ?luaT_gettm@@$$FYGPBUlua_TValue@@PAUTable@@W4TMS@@PATTString@@@Z 10009018 f   luaglue.obj
 0001:00008048       ?luaH_getnum@@$$FYGPBUlua_TValue@@PAUTable@@H@Z 10009048 f   luaglue.obj
 0001:000080a0       ?countint@?A0xd55f0479@@$$FYGHPBUlua_TValue@@PAH@Z 100090a0 f   luaglue.obj
 0001:000080dc       ?mainposition@?A0xd55f0479@@$$FYGPAUNode@@PBUTable@@PBUlua_TValue@@@Z 100090dc f   luaglue.obj
 0001:00008178       ?match_capture@?A0xd55f0479@@$$FYGPBDPAUMatchState@@PBDH@Z 10009178 f   luaglue.obj
 0001:000081c0       ?end_capture@?A0xd55f0479@@$$FYGPBDPAUMatchState@@PBD1@Z 100091c0 f   luaglue.obj
 0001:00008208       ?matchbracketclass@?A0xd55f0479@@$$FYGHHPBD0@Z 10009208 f   luaglue.obj
 0001:00008288       ?luaS_resize@@$$FYGXPAUlua_State@@H@Z 10009288 f   luaglue.obj
 0001:0000834c       ?os_clock@?A0xd55f0479@@$$FYGHPAUlua_State@@@Z 1000934c f   luaglue.obj
 0001:00008374       ?os_pushresult@?A0xd55f0479@@$$FYGHPAUlua_State@@HPBD@Z 10009374 f   luaglue.obj
 0001:000083bc       ?read_number@?A0xd55f0479@@$$FYGHPAUlua_State@@PAU_iobuf@@@Z 100093bc f   luaglue.obj
 0001:000083f0       ?pushresult@?A0xd55f0479@@$$FYGHPAUlua_State@@HPBD@Z 100093f0 f   luaglue.obj
 0001:0000844c       ?luaC_barrierf@@$$FYGXPAUlua_State@@PATGCObject@@1@Z 1000944c f   luaglue.obj
 0001:00008488       ?remarkupvals@?A0xd55f0479@@$$FYGXPAUglobal_State@@@Z 10009488 f   luaglue.obj
 0001:000084e0       ?markmt@?A0xd55f0479@@$$FYGXPAUglobal_State@@@Z 100094e0 f   luaglue.obj
 0001:00008530       ?cleartable@?A0xd55f0479@@$$FYGXPATGCObject@@@Z 10009530 f   luaglue.obj
 0001:000085c4       ?traverseclosure@?A0xd55f0479@@$$FYGXPAUglobal_State@@PATClosure@@@Z 100095c4 f   luaglue.obj
 0001:00008678       ?traverseproto@?A0xd55f0479@@$$FYGXPAUglobal_State@@PAUProto@@@Z 10009678 f   luaglue.obj
 0001:000087a4       ?traversetable@?A0xd55f0479@@$$FYGHPAUglobal_State@@PAUTable@@@Z 100097a4 f   luaglue.obj
 0001:00008934       ?luaC_separateudata@@$$FYGIPAUlua_State@@H@Z 10009934 f   luaglue.obj
 0001:00008a00       ?marktmu@?A0xd55f0479@@$$FYGXPAUglobal_State@@@Z 10009a00 f   luaglue.obj
 0001:00008a40       ?luaF_freeupval@@$$FYGXPAUlua_State@@PAUUpVal@@@Z 10009a40 f   luaglue.obj
 0001:00008a68       ?DumpHeader@?A0xd55f0479@@$$FYGXPAUDumpState@@@Z 10009a68 f   luaglue.obj
 0001:00008a88       ?DumpString@?A0xd55f0479@@$$FYGXPBTTString@@PAUDumpState@@@Z 10009a88 f   luaglue.obj
 0001:00008ac8       ?DumpNumber@?A0xd55f0479@@$$FYGXNPAUDumpState@@@Z 10009ac8 f   luaglue.obj
 0001:00008ae0       ?DumpInt@?A0xd55f0479@@$$FYGXHPAUDumpState@@@Z 10009ae0 f   luaglue.obj
 0001:00008af8       ?DumpChar@?A0xd55f0479@@$$FYGXHPAUDumpState@@@Z 10009af8 f   luaglue.obj
 0001:00008b10       ?symbexec@?A0xd55f0479@@$$FYGIPBUProto@@HH@Z 10009b10 f   luaglue.obj
 0001:00009050       ?findlocal@?A0xd55f0479@@$$FYGPBDPAUlua_State@@PAUCallInfo@@H@Z 1000a050 f   luaglue.obj
 0001:000090ac       ?currentline@?A0xd55f0479@@$$FYGHPAUlua_State@@PAUCallInfo@@@Z 1000a0ac f   luaglue.obj
 0001:000090f0       ?constfolding@?A0xd55f0479@@$$FYGHW4OpCode@@PAUexpdesc@@1@Z 1000a0f0 f   luaglue.obj
 0001:000091cc       ?invertjump@?A0xd55f0479@@$$FYGXPAUFuncState@@PAUexpdesc@@@Z 1000a1cc f   luaglue.obj
 0001:0000920c       ?freeexp@?A0xd55f0479@@$$FYGXPAUFuncState@@PAUexpdesc@@@Z 1000a20c f   luaglue.obj
 0001:0000922c       ?patchtestreg@?A0xd55f0479@@$$FYGHPAUFuncState@@HH@Z 1000a22c f   luaglue.obj
 0001:000092a0       ?need_value@?A0xd55f0479@@$$FYGHPAUFuncState@@H@Z 1000a2a0 f   luaglue.obj
 0001:000092d8       ?luaB_corunning@?A0xd55f0479@@$$FYGHPAUlua_State@@@Z 1000a2d8 f   luaglue.obj
 0001:000092f8       ?luaB_yield@?A0xd55f0479@@$$FYGHPAUlua_State@@@Z 1000a2f8 f   luaglue.obj
 0001:00009314       ?costatus@?A0xd55f0479@@$$FYGHPAUlua_State@@0@Z 1000a314 f   luaglue.obj
 0001:00009360       ?lua_setupvalue@@$$FYGPBDPAUlua_State@@HH@Z 1000a360 f   luaglue.obj
 0001:000093d4       ?lua_getupvalue@@$$FYGPBDPAUlua_State@@HH@Z 1000a3d4 f   luaglue.obj
 0001:00009418       ?lua_setfenv@@$$FYGHPAUlua_State@@H@Z 1000a418 f   luaglue.obj
 0001:000094b8       ?lua_setmetatable@@$$FYGHPAUlua_State@@H@Z 1000a4b8 f   luaglue.obj
 0001:00009560       ?lua_rawset@@$$FYGXPAUlua_State@@H@Z 1000a560 f   luaglue.obj
 0001:000095d4       ?lua_getfenv@@$$FYGXPAUlua_State@@H@Z 1000a5d4 f   luaglue.obj
 0001:00009658       ?lua_getmetatable@@$$FYGHPAUlua_State@@H@Z 1000a658 f   luaglue.obj
 0001:000096cc       ?lua_rawgeti@@$$FYGXPAUlua_State@@HH@Z 1000a6cc f   luaglue.obj
 0001:00009708       ?lua_rawget@@$$FYGXPAUlua_State@@H@Z 1000a708 f   luaglue.obj
 0001:00009744       ?lua_tothread@@$$FYGPAUlua_State@@PAU1@H@Z 1000a744 f   luaglue.obj
 0001:00009768       ?lua_touserdata@@$$FYGPAXPAUlua_State@@H@Z 1000a768 f   luaglue.obj
 0001:0000979c       ?lua_tocfunction@@$$FYGP6GHPAUlua_State@@@Z0H@Z 1000a79c f   luaglue.obj
 0001:000097d0       ?lua_toboolean@@$$FYGHPAUlua_State@@H@Z 1000a7d0 f   luaglue.obj
 0001:00009800       ?lua_tonumber@@$$FYGNPAUlua_State@@H@Z 1000a800 f   luaglue.obj
 0001:00009838       ?lua_rawequal@@$$FYGHPAUlua_State@@HH@Z 1000a838 f   luaglue.obj
 0001:00009874       ?lua_isuserdata@@$$FYGHPAUlua_State@@H@Z 1000a874 f   luaglue.obj
 0001:000098a0       ?lua_isnumber@@$$FYGHPAUlua_State@@H@Z 1000a8a0 f   luaglue.obj
 0001:000098d4       ?lua_iscfunction@@$$FYGHPAUlua_State@@H@Z 1000a8d4 f   luaglue.obj
 0001:00009900       ?lua_type@@$$FYGHPAUlua_State@@H@Z 1000a900 f   luaglue.obj
 0001:00009928       ?lua_pushvalue@@$$FYGXPAUlua_State@@H@Z 1000a928 f   luaglue.obj
 0001:0000995c       ?lua_replace@@$$FYGXPAUlua_State@@H@Z 1000a95c f   luaglue.obj
 0001:00009a54       ?lua_insert@@$$FYGXPAUlua_State@@H@Z 1000aa54 f   luaglue.obj
 0001:00009aac       ?lua_remove@@$$FYGXPAUlua_State@@H@Z 1000aaac f   luaglue.obj
 0001:00009af0       ?luaZ_read@@$$FYGIPAUZio@@PAXI@Z 1000aaf0 f   luaglue.obj
 0001:00009b44       ?get_compTM@?A0xd55f0479@@$$FYGPBUlua_TValue@@PAUlua_State@@PAUTable@@1W4TMS@@@Z 1000ab44 f   luaglue.obj
 0001:00009bd8       ?laction@?A0xd55f0479@@$$FYGXH@Z 1000abd8 f   luaglue.obj
 0001:00009c00       ?unbound_search@?A0xd55f0479@@$$FYGHPAUTable@@I@Z 1000ac00 f   luaglue.obj
 0001:00009c70       ?numusehash@?A0xd55f0479@@$$FYGHPBUTable@@PAH1@Z 1000ac70 f   luaglue.obj
 0001:00009cc0       ?findindex@?A0xd55f0479@@$$FYGHPAUlua_State@@PAUTable@@PAUlua_TValue@@@Z 1000acc0 f   luaglue.obj
 0001:00009d48       ?singlematch@?A0xd55f0479@@$$FYGHHPBD0@Z 1000ad48 f   luaglue.obj
 0001:00009d94       ?newlstr@?A0xd55f0479@@$$FYGPATTString@@PAUlua_State@@PBDII@Z 1000ad94 f   luaglue.obj
 0001:00009e44       ?getiofile@?A0xd55f0479@@$$FYGPAU_iobuf@@PAUlua_State@@H@Z 1000ae44 f   luaglue.obj
 0001:00009e84       ?luaC_linkupval@@$$FYGXPAUlua_State@@PAUUpVal@@@Z 1000ae84 f   luaglue.obj
 0001:00009f0c       ?markroot@?A0xd55f0479@@$$FYGXPAUlua_State@@@Z 1000af0c f   luaglue.obj
 0001:00009fac       ?luaF_close@@$$FYGXPAUlua_State@@PAUlua_TValue@@@Z 1000afac f   luaglue.obj
 0001:0000a028       ?DumpConstants@?A0xd55f0479@@$$FYGXPBUProto@@PAUDumpState@@@Z 1000b028 f   luaglue.obj
 0001:0000a0c4       ?DumpVector@?A0xd55f0479@@$$FYGXPBXHIPAUDumpState@@@Z 1000b0c4 f   luaglue.obj
 0001:0000a0e4       ?addinfo@?A0xd55f0479@@$$FYGXPAUlua_State@@PBD@Z 1000b0e4 f   luaglue.obj
 0001:0000a13c       ?getobjname@?A0xd55f0479@@$$FYGPBDPAUlua_State@@PAUCallInfo@@HPAPBD@Z 1000b13c f   luaglue.obj
 0001:0000a2a4       ?luaG_checkcode@@$$FYGHPBUProto@@@Z 1000b2a4 f   luaglue.obj
 0001:0000a2cc       ?lua_setlocal@@$$FYGPBDPAUlua_State@@PBUlua_Debug@@H@Z 1000b2cc f   luaglue.obj
 0001:0000a324       ?lua_getlocal@@$$FYGPBDPAUlua_State@@PBUlua_Debug@@H@Z 1000b324 f   luaglue.obj
 0001:0000a360       ?getthread@?A0xd55f0479@@$$FYGPAUlua_State@@PAU2@PAH@Z 1000b360 f   luaglue.obj
 0001:0000a38c       ?db_getregistry@?A0xd55f0479@@$$FYGHPAUlua_State@@@Z 1000b38c f   luaglue.obj
 0001:0000a3a8       ?removevalues@?A0xd55f0479@@$$FYGXPAUFuncState@@H@Z 1000b3a8 f   luaglue.obj
 0001:0000a3d4       ?load_aux@?A0xd55f0479@@$$FYGHPAUlua_State@@H@Z 1000b3d4 f   luaglue.obj
 0001:0000a3fc       ?lua_topointer@@$$FYGPBXPAUlua_State@@H@Z 1000b3fc f   luaglue.obj
 0001:0000a45c       ?lua_isstring@@$$FYGHPAUlua_State@@H@Z 1000b45c f   luaglue.obj
 0001:0000a484       ?luaH_getn@@$$FYGHPAUTable@@@Z 1000b484 f   luaglue.obj
 0001:0000a4f0       ?luaH_next@@$$FYGHPAUlua_State@@PAUTable@@PAUlua_TValue@@@Z 1000b4f0 f   luaglue.obj
 0001:0000a5d0       ?min_expand@?A0xd55f0479@@$$FYGPBDPAUMatchState@@PBD11@Z 1000b5d0 f   luaglue.obj
 0001:0000a610       ?max_expand@?A0xd55f0479@@$$FYGPBDPAUMatchState@@PBD11@Z 1000b610 f   luaglue.obj
 0001:0000a660       ?luaS_newlstr@@$$FYGPATTString@@PAUlua_State@@PBDI@Z 1000b660 f   luaglue.obj
 0001:0000a700       ?luaX_init@@$$FYGXPAUlua_State@@@Z 1000b700 f   luaglue.obj
 0001:0000a750       ?io_flush@?A0xd55f0479@@$$FYGHPAUlua_State@@@Z 1000b750 f   luaglue.obj
 0001:0000a77c       ?DumpDebug@?A0xd55f0479@@$$FYGXPBUProto@@PAUDumpState@@@Z 1000b77c f   luaglue.obj
 0001:0000a838       ?luaD_seterrorobj@@$$FYGXPAUlua_State@@HPAUlua_TValue@@@Z 1000b838 f   luaglue.obj
 0001:0000a8b8       ?luaG_typeerror@@$$FYGXPAUlua_State@@PBUlua_TValue@@PBD@Z 1000b8b8 f   luaglue.obj
 0001:0000a920       ?getfuncname@?A0xd55f0479@@$$FYGPBDPAUlua_State@@PAUCallInfo@@PAPBD@Z 1000b920 f   luaglue.obj
 0001:0000a9b8       ?auxgetinfo@?A0xd55f0479@@$$FYGHPAUlua_State@@PBDPAUlua_Debug@@PATClosure@@PAUCallInfo@@@Z 1000b9b8 f   luaglue.obj
 0001:0000ab08       ?lua_next@@$$FYGHPAUlua_State@@H@Z 1000bb08 f   luaglue.obj
 0001:0000ab4c       ?luaV_tostring@@$$FYGHPAUlua_State@@PAUlua_TValue@@@Z 1000bb4c f   luaglue.obj
 0001:0000ab90       ?luaT_init@@$$FYGXPAUlua_State@@@Z 1000bb90 f   luaglue.obj
 0001:0000ac04       ?match@?A0xd55f0479@@$$FYGPBDPAUMatchState@@PBD1@Z 1000bc04 f   luaglue.obj
 0001:0000aee0       ?DumpFunction@?A0xd55f0479@@$$FYGXPBUProto@@PBTTString@@PAUDumpState@@@Z 1000bee0 f   luaglue.obj
 0001:0000af70       ?luaD_pcall@@$$FYGHPAUlua_State@@P6GX0PAX@Z1HH@Z 1000bf70 f   luaglue.obj
 0001:0000b00c       ?resetstack@?A0xd55f0479@@$$FYGXPAUlua_State@@H@Z 1000c00c f   luaglue.obj
 0001:0000b068       ?luaG_aritherror@@$$FYGXPAUlua_State@@PBUlua_TValue@@1@Z 1000c068 f   luaglue.obj
 0001:0000b090       ?luaG_concaterror@@$$FYGXPAUlua_State@@PAUlua_TValue@@1@Z 1000c090 f   luaglue.obj
 0001:0000b0bc       ?lua_objlen@@$$FYGIPAUlua_State@@H@Z 1000c0bc f   luaglue.obj
 0001:0000b12c       ?luaU_dump@@$$FYGHPAUlua_State@@PBUProto@@P6GH0PBXIPAX@Z3H@Z 1000c12c f   luaglue.obj
 0001:0000b170       ?luaD_throw@@$$FYGXPAUlua_State@@H@Z 1000c170 f   luaglue.obj
 0001:0000b1d0       ?lua_dump@@$$FYGHPAUlua_State@@P6GH0PBXIPAX@Z2@Z 1000c1d0 f   luaglue.obj
 0001:0000b20c       ?error@?A0xd55f0479@@$$FYGXPAULoadState@@PBD@Z 1000c20c f   luaglue.obj
 0001:0000b234       ?luaM_realloc_@@$$FYGPAXPAUlua_State@@PAXII@Z 1000c234 f   luaglue.obj
 0001:0000b27c       ?luaM_growaux_@@$$FYGPAXPAUlua_State@@PAXPAHIHPBD@Z 1000c27c f   luaglue.obj
 0001:0000b2d8       ?luaX_setinput@@$$FYGXPAUlua_State@@PAULexState@@PAUZio@@PATTString@@@Z 1000c2d8 f   luaglue.obj
 0001:0000b398       ?save@?A0xd55f0479@@$$FYGXPAULexState@@H@Z 1000c398 f   luaglue.obj
 0001:0000b418       ?checkSizes@?A0xd55f0479@@$$FYGXPAUlua_State@@@Z 1000c418 f   luaglue.obj
 0001:0000b48c       ?luaF_freeclosure@@$$FYGXPAUlua_State@@PATClosure@@@Z 1000c48c f   luaglue.obj
 0001:0000b4c4       ?luaF_freeproto@@$$FYGXPAUlua_State@@PAUProto@@@Z 1000c4c4 f   luaglue.obj
 0001:0000b5a4       ?luaF_newproto@@$$FYGPAUProto@@PAUlua_State@@@Z 1000c5a4 f   luaglue.obj
 0001:0000b63c       ?luaF_findupval@@$$FYGPAUUpVal@@PAUlua_State@@PAUlua_TValue@@@Z 1000c63c f   luaglue.obj
 0001:0000b6e4       ?luaF_newupval@@$$FYGPAUUpVal@@PAUlua_State@@@Z 1000c6e4 f   luaglue.obj
 0001:0000b718       ?luaF_newLclosure@@$$FYGPATClosure@@PAUlua_State@@HPAUTable@@@Z 1000c718 f   luaglue.obj
 0001:0000b768       ?luaF_newCclosure@@$$FYGPATClosure@@PAUlua_State@@HPAUTable@@@Z 1000c768 f   luaglue.obj
 0001:0000b7a4       ?luaD_call@@$$FYGXPAUlua_State@@PAUlua_TValue@@H@Z 1000c7a4 f   luaglue.obj
 0001:0000b82c       ?growCI@?A0xd55f0479@@$$FYGPAUCallInfo@@PAUlua_State@@@Z 1000c82c f   luaglue.obj
 0001:0000b888       ?luaD_reallocstack@@$$FYGXPAUlua_State@@H@Z 1000c888 f   luaglue.obj
 0001:0000b8ec       ?addk@?A0xd55f0479@@$$FYGHPAUFuncState@@PAUlua_TValue@@1@Z 1000c8ec f   luaglue.obj
 0001:0000b9d8       ?f_Ccall@?A0xd55f0479@@$$FYGXPAUlua_State@@PAX@Z 1000c9d8 f   luaglue.obj
 0001:0000ba40       ?f_call@?A0xd55f0479@@$$FYGXPAUlua_State@@PAX@Z 1000ca40 f   luaglue.obj
 0001:0000ba5c       ?lua_call@@$$FYGXPAUlua_State@@HH@Z 1000ca5c f   luaglue.obj
 0001:0000ba9c       ?luaZ_openspace@@$$FYGPADPAUlua_State@@PAUMbuffer@@I@Z 1000ca9c f   luaglue.obj
 0001:0000bae4       ?LoadBlock@?A0xd55f0479@@$$FYGXPAULoadState@@PAXI@Z 1000cae4 f   luaglue.obj
 0001:0000bb0c       ?luaH_free@@$$FYGXPAUlua_State@@PAUTable@@@Z 1000cb0c f   luaglue.obj
 0001:0000bb74       ?setnodevector@?A0xd55f0479@@$$FYGXPAUlua_State@@PAUTable@@H@Z 1000cb74 f   luaglue.obj
 0001:0000bc18       ?setarrayvector@?A0xd55f0479@@$$FYGXPAUlua_State@@PAUTable@@H@Z 1000cc18 f   luaglue.obj
 0001:0000bc7c       ?luaS_newudata@@$$FYGPATUdata@@PAUlua_State@@IPAUTable@@@Z 1000cc7c f   luaglue.obj
 0001:0000bce4       ?freestack@?A0xd55f0479@@$$FYGXPAUlua_State@@0@Z 1000cce4 f   luaglue.obj
 0001:0000bd34       ?stack_init@?A0xd55f0479@@$$FYGXPAUlua_State@@0@Z 1000cd34 f   luaglue.obj
 0001:0000be18       ?registerlocalvar@?A0xd55f0479@@$$FYGHPAULexState@@PATTString@@@Z 1000ce18 f   luaglue.obj
 0001:0000bec0       ?dooptions@?A0xd55f0479@@$$FYGXPAUlua_State@@H@Z 1000cec0 f   luaglue.obj
 0001:0000bef4       ?skip_sep@?A0xd55f0479@@$$FYGHPAULexState@@@Z 1000cef4 f   luaglue.obj
 0001:0000bfbc       ?check_next@?A0xd55f0479@@$$FYGHPAULexState@@PBD@Z 1000cfbc f   luaglue.obj
 0001:0000c028       ?txtToken@?A0xd55f0479@@$$FYGPBDPAULexState@@H@Z 1000d028 f   luaglue.obj
 0001:0000c064       ?GCTM@?A0xd55f0479@@$$FYGXPAUlua_State@@@Z 1000d064 f   luaglue.obj
 0001:0000c16c       ?checkstacksizes@?A0xd55f0479@@$$FYGXPAUlua_State@@PAUlua_TValue@@@Z 1000d16c f   luaglue.obj
 0001:0000c1e0       ?luaD_growstack@@$$FYGXPAUlua_State@@H@Z 1000d1e0 f   luaglue.obj
 0001:0000c214       ?luaG_errormsg@@$$FYGXPAUlua_State@@@Z 1000d214 f   luaglue.obj
 0001:0000c2b0       ?nilK@?A0xd55f0479@@$$FYGHPAUFuncState@@@Z 1000d2b0 f   luaglue.obj
 0001:0000c2e0       ?boolK@?A0xd55f0479@@$$FYGHPAUFuncState@@H@Z 1000d2e0 f   luaglue.obj
 0001:0000c304       ?luaK_numberK@@$$FYGHPAUFuncState@@N@Z 1000d304 f   luaglue.obj
 0001:0000c328       ?luaK_stringK@@$$FYGHPAUFuncState@@PATTString@@@Z 1000d328 f   luaglue.obj
 0001:0000c34c       ?lua_error@@$$FYGHPAUlua_State@@@Z 1000d34c f   luaglue.obj
 0001:0000c364       ?lua_cpcall@@$$FYGHPAUlua_State@@P6GH0@ZPAX@Z 1000d364 f   luaglue.obj
 0001:0000c398       ?lua_pcall@@$$FYGHPAUlua_State@@HHH@Z 1000d398 f   luaglue.obj
 0001:0000c40c       ?lua_checkstack@@$$FYGHPAUlua_State@@H@Z 1000d40c f   luaglue.obj
 0001:0000c480       ?callTM@?A0xd55f0479@@$$FYGXPAUlua_State@@PBUlua_TValue@@111@Z 1000d480 f   luaglue.obj
 0001:0000c524       ?callTMres@?A0xd55f0479@@$$FYGXPAUlua_State@@PAUlua_TValue@@PBU3@22@Z 1000d524 f   luaglue.obj
 0001:0000c5e0       ?LoadHeader@?A0xd55f0479@@$$FYGXPAULoadState@@@Z 1000d5e0 f   luaglue.obj
 0001:0000c618       ?LoadStringW@?A0xd55f0479@@$$FYGPATTString@@PAULoadState@@@Z 1000d618 f   luaglue.obj
 0001:0000c658       ?LoadNumber@?A0xd55f0479@@$$FYGNPAULoadState@@@Z 1000d658 f   luaglue.obj
 0001:0000c674       ?LoadInt@?A0xd55f0479@@$$FYGHPAULoadState@@@Z 1000d674 f   luaglue.obj
 0001:0000c69c       ?LoadChar@?A0xd55f0479@@$$FYGHPAULoadState@@@Z 1000d69c f   luaglue.obj
 0001:0000c6b8       ?luaH_new@@$$FYGPAUTable@@PAUlua_State@@HH@Z 1000d6b8 f   luaglue.obj
 0001:0000c714       ?resize@?A0xd55f0479@@$$FYGXPAUlua_State@@PAUTable@@HH@Z 1000d714 f   luaglue.obj
 0001:0000c834       ?luaE_freethread@@$$FYGXPAUlua_State@@0@Z 1000d834 f   luaglue.obj
 0001:0000c860       ?luaE_newthread@@$$FYGPAUlua_State@@PAU1@@Z 1000d860 f   luaglue.obj
 0001:0000c8d4       ?f_luaopen@?A0xd55f0479@@$$FYGXPAUlua_State@@PAX@Z 1000d8d4 f   luaglue.obj
 0001:0000c950       ?open_func@?A0xd55f0479@@$$FYGXPAULexState@@PAUFuncState@@@Z 1000d950 f   luaglue.obj
 0001:0000ca38       ?codestring@?A0xd55f0479@@$$FYGXPAULexState@@PAUexpdesc@@PATTString@@@Z 1000da38 f   luaglue.obj
 0001:0000ca58       ?pushstr@?A0xd55f0479@@$$FYGXPAUlua_State@@PBD@Z 1000da58 f   luaglue.obj
 0001:0000caa0       ?luaX_lexerror@@$$FYGXPAULexState@@PBDH@Z 1000daa0 f   luaglue.obj
 0001:0000cafc       ?luaC_callGCTM@@$$FYGXPAUlua_State@@@Z 1000dafc f   luaglue.obj
 0001:0000cb1c       ?freeobj@?A0xd55f0479@@$$FYGXPAUlua_State@@PATGCObject@@@Z 1000db1c f   luaglue.obj
 0001:0000cbbc       ?traversestack@?A0xd55f0479@@$$FYGXPAUglobal_State@@PAUlua_State@@@Z 1000dbbc f   luaglue.obj
 0001:0000cc58       ?resume_error@?A0xd55f0479@@$$FYGHPAUlua_State@@PBD@Z 1000dc58 f   luaglue.obj
 0001:0000ccac       ?tryfuncTM@?A0xd55f0479@@$$FYGPAUlua_TValue@@PAUlua_State@@PAU2@@Z 1000dcac f   luaglue.obj
 0001:0000cd4c       ?luaD_callhook@@$$FYGXPAUlua_State@@HH@Z 1000dd4c f   luaglue.obj
 0001:0000ce10       ?luaL_checkstack@@$$FYGXPAUlua_State@@HPBD@Z 1000de10 f   luaglue.obj
 0001:0000ce34       ?luaV_equalval@@$$FYGHPAUlua_State@@PBUlua_TValue@@1@Z 1000de34 f   luaglue.obj
 0001:0000cf28       ?call_orderTM@?A0xd55f0479@@$$FYGHPAUlua_State@@PBUlua_TValue@@1W4TMS@@@Z 1000df28 f   luaglue.obj
 0001:0000cf90       ?call_binTM@?A0xd55f0479@@$$FYGHPAUlua_State@@PBUlua_TValue@@1PAU3@W4TMS@@@Z 1000df90 f   luaglue.obj
 0001:0000cfd0       ?luaV_settable@@$$FYGXPAUlua_State@@PBUlua_TValue@@PAU2@2@Z 1000dfd0 f   luaglue.obj
 0001:0000d0d4       ?luaV_gettable@@$$FYGXPAUlua_State@@PBUlua_TValue@@PAU2@2@Z 1000e0d4 f   luaglue.obj
 0001:0000d19c       ?traceexec@?A0xd55f0479@@$$FYGXPAUlua_State@@PBI@Z 1000e19c f   luaglue.obj
 0001:0000d248       ?LoadDebug@?A0xd55f0479@@$$FYGXPAULoadState@@PAUProto@@@Z 1000e248 f   luaglue.obj
 0001:0000d39c       ?LoadConstants@?A0xd55f0479@@$$FYGXPAULoadState@@PAUProto@@@Z 1000e39c f   luaglue.obj
 0001:0000d508       ?LoadCode@?A0xd55f0479@@$$FYGXPAULoadState@@PAUProto@@@Z 1000e508 f   luaglue.obj
 0001:0000d558       ?rehash@?A0xd55f0479@@$$FYGXPAUlua_State@@PAUTable@@PBUlua_TValue@@@Z 1000e558 f   luaglue.obj
 0001:0000d5b8       ?luaH_resizearray@@$$FYGXPAUlua_State@@PAUTable@@H@Z 1000e5b8 f   luaglue.obj
 0001:0000d5e4       ?callallgcTM@?A0xd55f0479@@$$FYGXPAUlua_State@@PAX@Z 1000e5e4 f   luaglue.obj
 0001:0000d5f8       ?enterlevel@?A0xd55f0479@@$$FYGXPAULexState@@@Z 1000e5f8 f   luaglue.obj
 0001:0000d638       ?errorlimit@?A0xd55f0479@@$$FYGXPAUFuncState@@HPBD@Z 1000e638 f   luaglue.obj
 0001:0000d684       ?trydecpoint@?A0xd55f0479@@$$FYGXPAULexState@@PATSemInfo@@@Z 1000e684 f   luaglue.obj
 0001:0000d6e8       ?luaX_syntaxerror@@$$FYGXPAULexState@@PBD@Z 1000e6e8 f   luaglue.obj
 0001:0000d704       ?sweeplist@?A0xd55f0479@@$$FYGPAPATGCObject@@PAUlua_State@@PAPAT2@I@Z 1000e704 f   luaglue.obj
 0001:0000d788       ?propagatemark@?A0xd55f0479@@$$FYGHPAUglobal_State@@@Z 1000e788 f   luaglue.obj
 0001:0000d8e8       ?callrethooks@?A0xd55f0479@@$$FYGPAUlua_TValue@@PAUlua_State@@PAU2@@Z 1000e8e8 f   luaglue.obj
 0001:0000d950       ?luaK_checkstack@@$$FYGXPAUFuncState@@H@Z 1000e950 f   luaglue.obj
 0001:0000d98c       ?fixjump@?A0xd55f0479@@$$FYGXPAUFuncState@@HH@Z 1000e98c f   luaglue.obj
 0001:0000d9e4       ?lua_setfield@@$$FYGXPAUlua_State@@HPBD@Z 1000e9e4 f   luaglue.obj
 0001:0000da2c       ?lua_settable@@$$FYGXPAUlua_State@@H@Z 1000ea2c f   luaglue.obj
 0001:0000da64       ?lua_getfield@@$$FYGXPAUlua_State@@HPBD@Z 1000ea64 f   luaglue.obj
 0001:0000daa8       ?lua_gettable@@$$FYGXPAUlua_State@@H@Z 1000eaa8 f   luaglue.obj
 0001:0000dad4       ?lua_equal@@$$FYGHPAUlua_State@@HH@Z 1000ead4 f   luaglue.obj
 0001:0000db2c       ?Arith@?A0xd55f0479@@$$FYGXPAUlua_State@@PAUlua_TValue@@PBU3@2W4TMS@@@Z 1000eb2c f   luaglue.obj
 0001:0000dc2c       ?luaV_concat@@$$FYGXPAUlua_State@@HH@Z 1000ec2c f   luaglue.obj
 0001:0000dd9c       ?lessequal@?A0xd55f0479@@$$FYGHPAUlua_State@@PBUlua_TValue@@1@Z 1000ed9c f   luaglue.obj
 0001:0000de24       ?luaV_lessthan@@$$FYGHPAUlua_State@@PBUlua_TValue@@1@Z 1000ee24 f   luaglue.obj
 0001:0000de94       ?LoadFunction@?A0xd55f0479@@$$FYGPAUProto@@PAULoadState@@PATTString@@@Z 1000ee94 f   luaglue.obj
 0001:0000dfa4       ?traceback@?A0xd55f0479@@$$FYGHPAUlua_State@@@Z 1000efa4 f   luaglue.obj
 0001:0000e020       ?newkey@?A0xd55f0479@@$$FYGPAUlua_TValue@@PAUlua_State@@PAUTable@@PBU2@@Z 1000f020 f   luaglue.obj
 0001:0000e0e0       ?listfield@?A0xd55f0479@@$$FYGXPAULexState@@PAUConsControl@@@Z 1000f0e0 f   luaglue.obj
 0001:0000e12c       ?indexupvalue@?A0xd55f0479@@$$FYGHPAUFuncState@@PATTString@@PAUexpdesc@@@Z 1000f12c f   luaglue.obj
 0001:0000e23c       ?new_localvar@?A0xd55f0479@@$$FYGXPAULexState@@PATTString@@H@Z 1000f23c f   luaglue.obj
 0001:0000e288       ?error_expected@?A0xd55f0479@@$$FYGXPAULexState@@H@Z 1000f288 f   luaglue.obj
 0001:0000e2b4       ?getfield@?A0xd55f0479@@$$FYGHPAUlua_State@@PBDH@Z 1000f2b4 f   luaglue.obj
 0001:0000e2fc       ?getboolfield@?A0xd55f0479@@$$FYGHPAUlua_State@@PBD@Z 1000f2fc f   luaglue.obj
 0001:0000e330       ?setboolfield@?A0xd55f0479@@$$FYGXPAUlua_State@@PBDH@Z 1000f330 f   luaglue.obj
 0001:0000e354       ?setfield@?A0xd55f0479@@$$FYGXPAUlua_State@@PBDH@Z 1000f354 f   luaglue.obj
 0001:0000e374       ?read_numeral@?A0xd55f0479@@$$FYGXPAULexState@@PATSemInfo@@@Z 1000f374 f   luaglue.obj
 0001:0000e47c       ?inclinenumber@?A0xd55f0479@@$$FYGXPAULexState@@@Z 1000f47c f   luaglue.obj
 0001:0000e548       ?aux_close@?A0xd55f0479@@$$FYGHPAUlua_State@@@Z 1000f548 f   luaglue.obj
 0001:0000e578       ?luaC_freeall@@$$FYGXPAUlua_State@@@Z 1000f578 f   luaglue.obj
 0001:0000e5c0       ?propagateall@?A0xd55f0479@@$$FYGIPAUglobal_State@@@Z 1000f5c0 f   luaglue.obj
 0001:0000e5e4       ?luaD_poscall@@$$FYGHPAUlua_State@@PAUlua_TValue@@@Z 1000f5e4 f   luaglue.obj
 0001:0000e690       ?treatstackoption@?A0xd55f0479@@$$FYGXPAUlua_State@@0PBD@Z 1000f690 f   luaglue.obj
 0001:0000e6c4       ?settabsi@?A0xd55f0479@@$$FYGXPAUlua_State@@PBDH@Z 1000f6c4 f   luaglue.obj
 0001:0000e6e4       ?luaK_reserveregs@@$$FYGXPAUFuncState@@H@Z 1000f6e4 f   luaglue.obj
 0001:0000e704       ?luaK_concat@@$$FYGXPAUFuncState@@PAHH@Z 1000f704 f   luaglue.obj
 0001:0000e73c       ?luaK_patchtohere@@$$FYGXPAUFuncState@@H@Z 1000f73c f   luaglue.obj
 0001:0000e75c       ?patchlistaux@?A0xd55f0479@@$$FYGXPAUFuncState@@HHHH@Z 1000f75c f   luaglue.obj
 0001:0000e798       ?lua_lessthan@@$$FYGHPAUlua_State@@HH@Z 1000f798 f   luaglue.obj
 0001:0000e7dc       ?luaU_undump@@$$FYGPAUProto@@PAUlua_State@@PAUZio@@PAUMbuffer@@PBD@Z 1000f7dc f   luaglue.obj
 0001:0000e84c       ?sort_comp@?A0xd55f0479@@$$FYGHPAUlua_State@@HH@Z 1000f84c f   luaglue.obj
 0001:0000e8a4       ?luaH_setstr@@$$FYGPAUlua_TValue@@PAUlua_State@@PAUTable@@PATTString@@@Z 1000f8a4 f   luaglue.obj
 0001:0000e8dc       ?luaH_setnum@@$$FYGPAUlua_TValue@@PAUlua_State@@PAUTable@@H@Z 1000f8dc f   luaglue.obj
 0001:0000e914       ?close_state@?A0xd55f0479@@$$FYGXPAUlua_State@@@Z 1000f914 f   luaglue.obj
 0001:0000e9a4       ?singlevaraux@?A0xd55f0479@@$$FYGHPAUFuncState@@PATTString@@PAUexpdesc@@H@Z 1000f9a4 f   luaglue.obj
 0001:0000ea0c       ?check@?A0xd55f0479@@$$FYGXPAULexState@@H@Z 1000fa0c f   luaglue.obj
 0001:0000ea28       ?atomic@?A0xd55f0479@@$$FYGXPAUlua_State@@@Z 1000fa28 f   luaglue.obj
 0001:0000eadc       ?collectvalidlines@?A0xd55f0479@@$$FYGXPAUlua_State@@PATClosure@@@Z 1000fadc f   luaglue.obj
 0001:0000eb6c       ?luaK_setreturns@@$$FYGXPAUFuncState@@PAUexpdesc@@H@Z 1000fb6c f   luaglue.obj
 0001:0000ec1c       ?luaK_patchlist@@$$FYGXPAUFuncState@@HH@Z 1000fc1c f   luaglue.obj
 0001:0000ec48       ?dischargejpc@?A0xd55f0479@@$$FYGXPAUFuncState@@@Z 1000fc48 f   luaglue.obj
 0001:0000ec78       ?lua_rawseti@@$$FYGXPAUlua_State@@HH@Z 1000fc78 f   luaglue.obj
 0001:0000ece4       ?set2@?A0xd55f0479@@$$FYGXPAUlua_State@@HH@Z 1000fce4 f   luaglue.obj
 0001:0000ed04       ?lua_close@@$$FYGXPAUlua_State@@@Z 1000fd04 f   luaglue.obj
 0001:0000ed74       ?lua_newstate@@$$FYGPAUlua_State@@P6GPAXPAX0II@Z0@Z 1000fd74 f   luaglue.obj
 0001:0000eeb8       ?singlestep@?A0xd55f0479@@$$FYGHPAUlua_State@@@Z 1000feb8 f   luaglue.obj
 0001:0000eff0       ?lua_getinfo@@$$FYGHPAUlua_State@@PBDPAUlua_Debug@@@Z 1000fff0 f   luaglue.obj
 0001:0000f0a8       ?luaK_code@?A0xd55f0479@@$$FYGHPAUFuncState@@IH@Z 100100a8 f   luaglue.obj
 0001:0000f154       ?luaL_unref@@$$FYGXPAUlua_State@@HH@Z 10010154 f   luaglue.obj
 0001:0000f1a4       ?luaL_ref@@$$FYGHPAUlua_State@@H@Z 100101a4 f   luaglue.obj
 0001:0000f228       ?luaL_argerror@@$$FYGHPAUlua_State@@HPBD@Z 10010228 f   luaglue.obj
 0001:0000f2b0       ?auxsort@?A0xd55f0479@@$$FYGXPAUlua_State@@HH@Z 100102b0 f   luaglue.obj
 0001:0000f44c       ?setfenv@?A0xd55f0479@@$$FYGXPAUlua_State@@@Z 1001044c f   luaglue.obj
 0001:0000f4a4       ?luaC_fullgc@@$$FYGXPAUlua_State@@@Z 100104a4 f   luaglue.obj
 0001:0000f520       ?luaC_step@@$$FYGXPAUlua_State@@@Z 10010520 f   luaglue.obj
 0001:0000f5c8       ?adjust_varargs@?A0xd55f0479@@$$FYGPAUlua_TValue@@PAUlua_State@@PAUProto@@H@Z 100105c8 f   luaglue.obj
 0001:0000f704       ?db_setmetatable@?A0xd55f0479@@$$FYGHPAUlua_State@@@Z 10010704 f   luaglue.obj
 0001:0000f744       ?luaK_codeABx@@$$FYGHPAUFuncState@@W4OpCode@@HI@Z 10010744 f   luaglue.obj
 0001:0000f76c       ?luaK_codeABC@@$$FYGHPAUFuncState@@W4OpCode@@HHH@Z 1001076c f   luaglue.obj
 0001:0000f79c       ?code_label@?A0xd55f0479@@$$FYGHPAUFuncState@@HHH@Z 1001079c f   luaglue.obj
 0001:0000f7bc       ?luaK_dischargevars@@$$FYGXPAUFuncState@@PAUexpdesc@@@Z 100107bc f   luaglue.obj
 0001:0000f868       ?luaK_ret@@$$FYGXPAUFuncState@@HH@Z 10010868 f   luaglue.obj
 0001:0000f884       ?luaK_jump@@$$FYGHPAUFuncState@@@Z 10010884 f   luaglue.obj
 0001:0000f8b8       ?luaK_nil@@$$FYGXPAUFuncState@@HH@Z 100108b8 f   luaglue.obj
 0001:0000f950       ?luaL_checkany@@$$FYGXPAUlua_State@@H@Z 10010950 f   luaglue.obj
 0001:0000f974       ?luaL_typerror@@$$FYGHPAUlua_State@@HPBD@Z 10010974 f   luaglue.obj
 0001:0000f9a8       ?lua_newuserdata@@$$FYGPAXPAUlua_State@@I@Z 100109a8 f   luaglue.obj
 0001:0000f9fc       ?lua_concat@@$$FYGXPAUlua_State@@H@Z 100109fc f   luaglue.obj
 0001:0000fa74       ?lua_gc@@$$FYGHPAUlua_State@@HH@Z 10010a74 f   luaglue.obj
 0001:0000fb58       ?lua_createtable@@$$FYGXPAUlua_State@@HH@Z 10010b58 f   luaglue.obj
 0001:0000fba0       ?lua_pushcclosure@@$$FYGXPAUlua_State@@P6GH0@ZH@Z 10010ba0 f   luaglue.obj
 0001:0000fc2c       ?lua_pushvfstring@@$$FYGPBDPAUlua_State@@PBDPAD@Z 10010c2c f   luaglue.obj
 0001:0000fc60       ?lua_pushlstring@@$$FYGXPAUlua_State@@PBDI@Z 10010c60 f   luaglue.obj
 0001:0000fca8       ?lua_tolstring@@$$FYGPBDPAUlua_State@@HPAI@Z 10010ca8 f   luaglue.obj
 0001:0000fd0c       ?lua_newthread@@$$FYGPAUlua_State@@PAU1@@Z 10010d0c f   luaglue.obj
 0001:0000fd58       ?incomplete@?A0xd55f0479@@$$FYGHPAUlua_State@@H@Z 10010d58 f   luaglue.obj
 0001:0000fd98       ?get_prompt@?A0xd55f0479@@$$FYGPBDPAUlua_State@@H@Z 10010d98 f   luaglue.obj
 0001:0000fdec       ?docall@?A0xd55f0479@@$$FYGHPAUlua_State@@HH@Z 10010dec f   luaglue.obj
 0001:0000fe54       ?report@?A0xd55f0479@@$$FYGHPAUlua_State@@H@Z 10010e54 f   luaglue.obj
 0001:0000fe98       ?createmetatable@?A0xd55f0479@@$$FYGXPAUlua_State@@@Z 10010e98 f   luaglue.obj
 0001:0000fef0       ?push_onecapture@?A0xd55f0479@@$$FYGXPAUMatchState@@HPBD1@Z 10010ef0 f   luaglue.obj
 0001:0000ff78       ?breakstat@?A0xd55f0479@@$$FYGXPAULexState@@@Z 10010f78 f   luaglue.obj
 0001:0000ffdc       ?check_conflict@?A0xd55f0479@@$$FYGXPAULexState@@PAULHS_assign@@PAUexpdesc@@@Z 10010fdc f   luaglue.obj
 0001:0001004c       ?pushclosure@?A0xd55f0479@@$$FYGXPAULexState@@PAUFuncState@@PAUexpdesc@@@Z 1001104c f   luaglue.obj
 0001:00010148       ?leaveblock@?A0xd55f0479@@$$FYGXPAUFuncState@@@Z 10011148 f   luaglue.obj
 0001:0001019c       ?loaderror@?A0xd55f0479@@$$FYGXPAUlua_State@@PBD@Z 1001119c f   luaglue.obj
 0001:000101c8       ?pushnexttemplate@?A0xd55f0479@@$$FYGPBDPAUlua_State@@PBD@Z 100111c8 f   luaglue.obj
 0001:00010214       ?ll_register@?A0xd55f0479@@$$FYGPAPAXPAUlua_State@@PBD@Z 10011214 f   luaglue.obj
 0001:000102a8       ?luaX_newstring@@$$FYGPATTString@@PAULexState@@PBDI@Z 100112a8 f   luaglue.obj
 0001:00010304       ?newfenv@?A0xd55f0479@@$$FYGXPAUlua_State@@P6GH0@Z@Z 10011304 f   luaglue.obj
 0001:00010330       ?test_eof@?A0xd55f0479@@$$FYGHPAUlua_State@@PAU_iobuf@@@Z 10011330 f   luaglue.obj
 0001:00010360       ?io_noclose@?A0xd55f0479@@$$FYGHPAUlua_State@@@Z 10011360 f   luaglue.obj
 0001:00010384       ?newfile@?A0xd55f0479@@$$FYGPAPAU_iobuf@@PAUlua_State@@@Z 10011384 f   luaglue.obj
 0001:000103b8       ?io_type@?A0xd55f0479@@$$FYGHPAUlua_State@@@Z 100113b8 f   luaglue.obj
 0001:00010428       ?fileerror@?A0xd55f0479@@$$FYGXPAUlua_State@@HPBD@Z 10011428 f   luaglue.obj
 0001:00010460       ?luaD_precall@@$$FYGHPAUlua_State@@PAUlua_TValue@@H@Z 10011460 f   luaglue.obj
 0001:0001068c       ?db_errorfb@?A0xd55f0479@@$$FYGHPAUlua_State@@@Z 1001168c f   luaglue.obj
 0001:00010840       ?gethooktable@?A0xd55f0479@@$$FYGXPAUlua_State@@@Z 10011840 f   luaglue.obj
 0001:0001089c       ?db_getfenv@?A0xd55f0479@@$$FYGHPAUlua_State@@@Z 1001189c f   luaglue.obj
 0001:000108bc       ?db_getmetatable@?A0xd55f0479@@$$FYGHPAUlua_State@@@Z 100118bc f   luaglue.obj
 0001:000108e4       ?luaK_setlist@@$$FYGXPAUFuncState@@HHH@Z 100118e4 f   luaglue.obj
 0001:00010940       ?discharge2reg@?A0xd55f0479@@$$FYGXPAUFuncState@@PAUexpdesc@@H@Z 10011940 f   luaglue.obj
 0001:00010a28       ?condjump@?A0xd55f0479@@$$FYGHPAUFuncState@@W4OpCode@@HHH@Z 10011a28 f   luaglue.obj
 0001:00010a4c       ?auxopen@?A0xd55f0479@@$$FYGXPAUlua_State@@PBDP6GH0@Z2@Z 10011a4c f   luaglue.obj
 0001:00010a74       ?luaB_cocreate@?A0xd55f0479@@$$FYGHPAUlua_State@@@Z 10011a74 f   luaglue.obj
 0001:00010abc       ?luaB_newproxy@?A0xd55f0479@@$$FYGHPAUlua_State@@@Z 10011abc f   luaglue.obj
 0001:00010b60       ?luaB_xpcall@?A0xd55f0479@@$$FYGHPAUlua_State@@@Z 10011b60 f   luaglue.obj
 0001:00010bac       ?luaB_pcall@?A0xd55f0479@@$$FYGHPAUlua_State@@@Z 10011bac f   luaglue.obj
 0001:00010bf0       ?generic_reader@?A0xd55f0479@@$$FYGPBDPAUlua_State@@PAXPAI@Z 10011bf0 f   luaglue.obj
 0001:00010c54       ?luaB_gcinfo@?A0xd55f0479@@$$FYGHPAUlua_State@@@Z 10011c54 f   luaglue.obj
 0001:00010c74       ?luaB_rawequal@?A0xd55f0479@@$$FYGHPAUlua_State@@@Z 10011c74 f   luaglue.obj
 0001:00010ca0       ?luaB_print@?A0xd55f0479@@$$FYGHPAUlua_State@@@Z 10011ca0 f   luaglue.obj
 0001:00010d48       ?panic@?A0xd55f0479@@$$FYGHPAUlua_State@@@Z 10011d48 f   luaglue.obj
 0001:00010d74       ?errfile@?A0xd55f0479@@$$FYGHPAUlua_State@@PBDH@Z 10011d74 f   luaglue.obj
 0001:00010db4       ?adjuststack@?A0xd55f0479@@$$FYGXPAUluaL_Buffer@@@Z 10011db4 f   luaglue.obj
 0001:00010e18       ?emptybuffer@?A0xd55f0479@@$$FYGHPAUluaL_Buffer@@@Z 10011e18 f   luaglue.obj
 0001:00010e58       ?luaL_findtable@@$$FYGPBDPAUlua_State@@HPBDH@Z 10011e58 f   luaglue.obj
 0001:00010f04       ?luaL_openlib@@$$FYGXPAUlua_State@@PBDPBUluaL_Reg@@H@Z 10011f04 f   luaglue.obj
 0001:00010fcc       ?luaL_register@@$$FYGXPAUlua_State@@PBDPBUluaL_Reg@@@Z 10011fcc f   luaglue.obj
 0001:00010fe4       ?luaL_checkudata@@$$FYGPAXPAUlua_State@@HPBD@Z 10011fe4 f   luaglue.obj
 0001:00011034       ?luaL_newmetatable@@$$FYGHPAUlua_State@@PBD@Z 10012034 f   luaglue.obj
 0001:00011080       ?luaL_where@@$$FYGXPAUlua_State@@H@Z 10012080 f   luaglue.obj
 0001:000110d4       ?tag_error@?A0xd55f0479@@$$FYGXPAUlua_State@@HH@Z 100120d4 f   luaglue.obj
 0001:000110f0       ?lua_pushstring@@$$FYGXPAUlua_State@@PBD@Z 100120f0 f   luaglue.obj
 0001:00011118       ?luaV_execute@@$$FYGXPAUlua_State@@H@Z 10012118 f   luaglue.obj
 0001:000125cc       ?pushline@?A0xd55f0479@@$$FYGHPAUlua_State@@H@Z 100135cc f   luaglue.obj
 0001:00012660       ?dolibrary@?A0xd55f0479@@$$FYGHPAUlua_State@@PBD@Z 10013660 f   luaglue.obj
 0001:00012694       ?getargs@?A0xd55f0479@@$$FYGHPAUlua_State@@PAPADH@Z 10013694 f   luaglue.obj
 0001:00012714       ?luaopen_table@@$$FYGHPAUlua_State@@@Z 10013714 f   luaglue.obj
 0001:00012734       ?luaopen_string@@$$FYGHPAUlua_State@@@Z 10013734 f   luaglue.obj
 0001:00012774       ?push_captures@?A0xd55f0479@@$$FYGHPAUMatchState@@PBD1@Z 10013774 f   luaglue.obj
 0001:000127c0       ?block@?A0xd55f0479@@$$FYGXPAULexState@@@Z 100137c0 f   luaglue.obj
 0001:000127e8       ?anchor_token@?A0xd55f0479@@$$FYGXPAULexState@@@Z 100137e8 f   luaglue.obj
 0001:00012824       ?luaopen_os@@$$FYGHPAUlua_State@@@Z 10013824 f   luaglue.obj
 0001:00012844       ?os_tmpname@?A0xd55f0479@@$$FYGHPAUlua_State@@@Z 10013844 f   luaglue.obj
 0001:0001287c       ?modinit@?A0xd55f0479@@$$FYGXPAUlua_State@@PBD@Z 1001387c f   luaglue.obj
 0001:000128dc       ?gctm@?A0xd55f0479@@$$FYGHPAUlua_State@@@Z 100138dc f   luaglue.obj
 0001:00012908       ?pusherror@?A0xd55f0479@@$$FYGXPAUlua_State@@@Z 10013908 f   luaglue.obj
 0001:0001294c       ?luaopen_math@@$$FYGHPAUlua_State@@@Z 1001394c f   luaglue.obj
 0001:000129bc       ?read_string@?A0xd55f0479@@$$FYGXPAULexState@@HPATSemInfo@@@Z 100139bc f   luaglue.obj
 0001:00013050       ?read_long_string@?A0xd55f0479@@$$FYGXPAULexState@@PATSemInfo@@H@Z 10014050 f   luaglue.obj
 0001:00013424       ?createstdfile@?A0xd55f0479@@$$FYGXPAUlua_State@@PAU_iobuf@@HPBD@Z 10014424 f   luaglue.obj
 0001:0001346c       ?createmeta@?A0xd55f0479@@$$FYGXPAUlua_State@@@Z 1001446c f   luaglue.obj
 0001:000134a8       ?io_tmpfile@?A0xd55f0479@@$$FYGHPAUlua_State@@@Z 100144a8 f   luaglue.obj
 0001:000134d4       ?io_tostring@?A0xd55f0479@@$$FYGHPAUlua_State@@@Z 100144d4 f   luaglue.obj
 0001:00013514       ?io_gc@?A0xd55f0479@@$$FYGHPAUlua_State@@@Z 10014514 f   luaglue.obj
 0001:0001353c       ?io_fclose@?A0xd55f0479@@$$FYGHPAUlua_State@@@Z 1001453c f   luaglue.obj
 0001:00013574       ?io_pclose@?A0xd55f0479@@$$FYGHPAUlua_State@@@Z 10014574 f   luaglue.obj
 0001:000135ac       ?tofile@?A0xd55f0479@@$$FYGPAU_iobuf@@PAUlua_State@@@Z 100145ac f   luaglue.obj
 0001:000135dc       ?luaL_openlibs@@$$FYGXPAUlua_State@@@Z 100145dc f   luaglue.obj
 0001:00013618       ?resume@?A0xd55f0479@@$$FYGXPAUlua_State@@PAX@Z 10014618 f   luaglue.obj
 0001:0001368c       ?luaopen_debug@@$$FYGHPAUlua_State@@@Z 1001468c f   luaglue.obj
 0001:000136ac       ?hookf@?A0xd55f0479@@$$FYGXPAUlua_State@@PAUlua_Debug@@@Z 100146ac f   luaglue.obj
 0001:0001371c       ?settabss@?A0xd55f0479@@$$FYGXPAUlua_State@@PBD1@Z 1001471c f   luaglue.obj
 0001:0001373c       ?exp2reg@?A0xd55f0479@@$$FYGXPAUFuncState@@PAUexpdesc@@H@Z 1001473c f   luaglue.obj
 0001:000137f4       ?discharge2anyreg@?A0xd55f0479@@$$FYGXPAUFuncState@@PAUexpdesc@@@Z 100147f4 f   luaglue.obj
 0001:0001381c       ?luaB_costatus@?A0xd55f0479@@$$FYGHPAUlua_State@@@Z 1001481c f   luaglue.obj
 0001:0001385c       ?luaB_type@?A0xd55f0479@@$$FYGHPAUlua_State@@@Z 1001485c f   luaglue.obj
 0001:00013888       ?luaL_newstate@@$$FYGPAUlua_State@@XZ 10014888 f   luaglue.obj
 0001:000138b4       ?luaL_addvalue@@$$FYGXPAUluaL_Buffer@@@Z 100148b4 f   luaglue.obj
 0001:0001391c       ?luaL_pushresult@@$$FYGXPAUluaL_Buffer@@@Z 1001491c f   luaglue.obj
 0001:00013944       ?luaL_prepbuffer@@$$FYGPADPAUluaL_Buffer@@@Z 10014944 f   luaglue.obj
 0001:00013968       ?luaL_getmetafield@@$$FYGHPAUlua_State@@HPBD@Z 10014968 f   luaglue.obj
 0001:000139b4       ?luaL_checkinteger@@$$FYGHPAUlua_State@@H@Z 100149b4 f   luaglue.obj
 0001:000139e0       ?luaL_checknumber@@$$FYGNPAUlua_State@@H@Z 100149e0 f   luaglue.obj
 0001:00013a18       ?luaL_checklstring@@$$FYGPBDPAUlua_State@@HPAI@Z 10014a18 f   luaglue.obj
 0001:00013a3c       ?luaL_checktype@@$$FYGXPAUlua_State@@HH@Z 10014a3c f   luaglue.obj
 0001:00013a5c       ?sort@?A0xd55f0479@@$$FYGHPAUlua_State@@@Z 10014a5c f   luaglue.obj
 0001:00013aac       ?addfield@?A0xd55f0479@@$$FYGXPAUlua_State@@PAUluaL_Buffer@@H@Z 10014aac f   luaglue.obj
 0001:00013aec       ?tinsert@?A0xd55f0479@@$$FYGHPAUlua_State@@@Z 10014aec f   luaglue.obj
 0001:00013b6c       ?setn@?A0xd55f0479@@$$FYGHPAUlua_State@@@Z 10014b6c f   luaglue.obj
 0001:00013b98       ?getn@?A0xd55f0479@@$$FYGHPAUlua_State@@@Z 10014b98 f   luaglue.obj
 0001:00013bc0       ?maxn@?A0xd55f0479@@$$FYGHPAUlua_State@@@Z 10014bc0 f   luaglue.obj
 0001:00013c1c       ?foreach@?A0xd55f0479@@$$FYGHPAUlua_State@@@Z 10014c1c f   luaglue.obj
 0001:00013c84       ?foreachi@?A0xd55f0479@@$$FYGHPAUlua_State@@@Z 10014c84 f   luaglue.obj
 0001:00013cf0       ?gmatch_aux@?A0xd55f0479@@$$FYGHPAUlua_State@@@Z 10014cf0 f   luaglue.obj
 0001:00013d90       ?str_char@?A0xd55f0479@@$$FYGHPAUlua_State@@@Z 10014d90 f   luaglue.obj
 0001:00013e04       ?str_upper@?A0xd55f0479@@$$FYGHPAUlua_State@@@Z 10014e04 f   luaglue.obj
 0001:00013e6c       ?str_lower@?A0xd55f0479@@$$FYGHPAUlua_State@@@Z 10014e6c f   luaglue.obj
 0001:00013ed4       ?str_reverse@?A0xd55f0479@@$$FYGHPAUlua_State@@@Z 10014ed4 f   luaglue.obj
 0001:00013f30       ?str_len@?A0xd55f0479@@$$FYGHPAUlua_State@@@Z 10014f30 f   luaglue.obj
 0001:00013f54       ?close_func@?A0xd55f0479@@$$FYGXPAULexState@@@Z 10014f54 f   luaglue.obj
 0001:00014134       ?os_time@?A0xd55f0479@@$$FYGHPAUlua_State@@@Z 10015134 f   luaglue.obj
 0001:00014210       ?os_getenv@?A0xd55f0479@@$$FYGHPAUlua_State@@@Z 10015210 f   luaglue.obj
 0001:00014234       ?os_rename@?A0xd55f0479@@$$FYGHPAUlua_State@@@Z 10015234 f   luaglue.obj
 0001:0001426c       ?os_remove@?A0xd55f0479@@$$FYGHPAUlua_State@@@Z 1001526c f   luaglue.obj
 0001:0001429c       ?ll_seeall@?A0xd55f0479@@$$FYGHPAUlua_State@@@Z 1001529c f   luaglue.obj
 0001:000142ec       ?ll_module@?A0xd55f0479@@$$FYGHPAUlua_State@@@Z 100152ec f   luaglue.obj
 0001:000143ac       ?ll_require@?A0xd55f0479@@$$FYGHPAUlua_State@@@Z 100153ac f   luaglue.obj
 0001:00014508       ?loader_preload@?A0xd55f0479@@$$FYGHPAUlua_State@@@Z 10015508 f   luaglue.obj
 0001:00014568       ?ll_sym@?A0xd55f0479@@$$FYGP6GHPAUlua_State@@@Z0PAXPBD@Z 10015568 f   luaglue.obj
 0001:0001458c       ?ll_load@?A0xd55f0479@@$$FYGPAXPAUlua_State@@PBD@Z 1001558c f   luaglue.obj
 0001:000145ac       ?math_randomseed@?A0xd55f0479@@$$FYGHPAUlua_State@@@Z 100155ac f   luaglue.obj
 0001:000145c8       ?math_random@?A0xd55f0479@@$$FYGHPAUlua_State@@@Z 100155c8 f   luaglue.obj
 0001:00014694       ?math_max@?A0xd55f0479@@$$FYGHPAUlua_State@@@Z 10015694 f   luaglue.obj
 0001:000146d8       ?math_min@?A0xd55f0479@@$$FYGHPAUlua_State@@@Z 100156d8 f   luaglue.obj
 0001:0001471c       ?math_ldexp@?A0xd55f0479@@$$FYGHPAUlua_State@@@Z 1001571c f   luaglue.obj
 0001:00014748       ?math_frexp@?A0xd55f0479@@$$FYGHPAUlua_State@@@Z 10015748 f   luaglue.obj
 0001:00014774       ?math_rad@?A0xd55f0479@@$$FYGHPAUlua_State@@@Z 10015774 f   luaglue.obj
 0001:0001479c       ?math_deg@?A0xd55f0479@@$$FYGHPAUlua_State@@@Z 1001579c f   luaglue.obj
 0001:000147c4       ?math_exp@?A0xd55f0479@@$$FYGHPAUlua_State@@@Z 100157c4 f   luaglue.obj
 0001:000147e8       ?math_log10@?A0xd55f0479@@$$FYGHPAUlua_State@@@Z 100157e8 f   luaglue.obj
 0001:0001480c       ?math_log@?A0xd55f0479@@$$FYGHPAUlua_State@@@Z 1001580c f   luaglue.obj
 0001:00014830       ?math_pow@?A0xd55f0479@@$$FYGHPAUlua_State@@@Z 10015830 f   luaglue.obj
 0001:0001485c       ?math_sqrt@?A0xd55f0479@@$$FYGHPAUlua_State@@@Z 1001585c f   luaglue.obj
 0001:00014880       ?math_modf@?A0xd55f0479@@$$FYGHPAUlua_State@@@Z 10015880 f   luaglue.obj
 0001:000148b0       ?math_fmod@?A0xd55f0479@@$$FYGHPAUlua_State@@@Z 100158b0 f   luaglue.obj
 0001:000148dc       ?math_floor@?A0xd55f0479@@$$FYGHPAUlua_State@@@Z 100158dc f   luaglue.obj
 0001:00014900       ?math_ceil@?A0xd55f0479@@$$FYGHPAUlua_State@@@Z 10015900 f   luaglue.obj
 0001:00014924       ?math_atan2@?A0xd55f0479@@$$FYGHPAUlua_State@@@Z 10015924 f   luaglue.obj
 0001:00014950       ?math_atan@?A0xd55f0479@@$$FYGHPAUlua_State@@@Z 10015950 f   luaglue.obj
 0001:00014974       ?math_acos@?A0xd55f0479@@$$FYGHPAUlua_State@@@Z 10015974 f   luaglue.obj
 0001:00014998       ?math_asin@?A0xd55f0479@@$$FYGHPAUlua_State@@@Z 10015998 f   luaglue.obj
 0001:000149bc       ?math_tanh@?A0xd55f0479@@$$FYGHPAUlua_State@@@Z 100159bc f   luaglue.obj
 0001:000149e0       ?math_tan@?A0xd55f0479@@$$FYGHPAUlua_State@@@Z 100159e0 f   luaglue.obj
 0001:00014a04       ?math_cosh@?A0xd55f0479@@$$FYGHPAUlua_State@@@Z 10015a04 f   luaglue.obj
 0001:00014a28       ?math_cos@?A0xd55f0479@@$$FYGHPAUlua_State@@@Z 10015a28 f   luaglue.obj
 0001:00014a4c       ?math_sinh@?A0xd55f0479@@$$FYGHPAUlua_State@@@Z 10015a4c f   luaglue.obj
 0001:00014a70       ?math_sin@?A0xd55f0479@@$$FYGHPAUlua_State@@@Z 10015a70 f   luaglue.obj
 0001:00014a94       ?math_abs@?A0xd55f0479@@$$FYGHPAUlua_State@@@Z 10015a94 f   luaglue.obj
 0001:00014ab8       ?llex@?A0xd55f0479@@$$FYGHPAULexState@@PATSemInfo@@@Z 10015ab8 f   luaglue.obj
 0001:00015318       ?luaopen_io@@$$FYGHPAUlua_State@@@Z 10016318 f   luaglue.obj
 0001:000153c8       ?f_flush@?A0xd55f0479@@$$FYGHPAUlua_State@@@Z 100163c8 f   luaglue.obj
 0001:000153f4       ?g_write@?A0xd55f0479@@$$FYGHPAUlua_State@@PAU_iobuf@@H@Z 100163f4 f   luaglue.obj
 0001:0001547c       ?read_chars@?A0xd55f0479@@$$FYGHPAUlua_State@@PAU_iobuf@@I@Z 1001647c f   luaglue.obj
 0001:000154e4       ?read_line@?A0xd55f0479@@$$FYGHPAUlua_State@@PAU_iobuf@@@Z 100164e4 f   luaglue.obj
 0001:00015560       ?g_iofile@?A0xd55f0479@@$$FYGHPAUlua_State@@HPBD@Z 10016560 f   luaglue.obj
 0001:000155cc       ?io_close@?A0xd55f0479@@$$FYGHPAUlua_State@@@Z 100165cc f   luaglue.obj
 0001:00015600       ?lua_resume@@$$FYGHPAUlua_State@@H@Z 10016600 f   luaglue.obj
 0001:000156b4       ?db_gethook@?A0xd55f0479@@$$FYGHPAUlua_State@@@Z 100166b4 f   luaglue.obj
 0001:0001572c       ?auxupvalue@?A0xd55f0479@@$$FYGHPAUlua_State@@H@Z 1001672c f   luaglue.obj
 0001:0001578c       ?db_setlocal@?A0xd55f0479@@$$FYGHPAUlua_State@@@Z 1001678c f   luaglue.obj
 0001:000157fc       ?db_getlocal@?A0xd55f0479@@$$FYGHPAUlua_State@@@Z 100167fc f   luaglue.obj
 0001:00015870       ?db_setfenv@?A0xd55f0479@@$$FYGHPAUlua_State@@@Z 10016870 f   luaglue.obj
 0001:000158a4       ?codenot@?A0xd55f0479@@$$FYGXPAUFuncState@@PAUexpdesc@@@Z 100168a4 f   luaglue.obj
 0001:0001595c       ?jumponcond@?A0xd55f0479@@$$FYGHPAUFuncState@@PAUexpdesc@@H@Z 1001695c f   luaglue.obj
 0001:000159d4       ?luaK_exp2nextreg@@$$FYGXPAUFuncState@@PAUexpdesc@@@Z 100169d4 f   luaglue.obj
 0001:00015a04       ?auxresume@?A0xd55f0479@@$$FYGHPAUlua_State@@0H@Z 10016a04 f   luaglue.obj
 0001:00015aa0       ?luaB_select@?A0xd55f0479@@$$FYGHPAUlua_State@@@Z 10016aa0 f   luaglue.obj
 0001:00015b08       ?luaB_ipairs@?A0xd55f0479@@$$FYGHPAUlua_State@@@Z 10016b08 f   luaglue.obj
 0001:00015b3c       ?ipairsaux@?A0xd55f0479@@$$FYGHPAUlua_State@@@Z 10016b3c f   luaglue.obj
 0001:00015b7c       ?luaB_pairs@?A0xd55f0479@@$$FYGHPAUlua_State@@@Z 10016b7c f   luaglue.obj
 0001:00015bac       ?luaB_next@?A0xd55f0479@@$$FYGHPAUlua_State@@@Z 10016bac f   luaglue.obj
 0001:00015be0       ?luaB_rawset@?A0xd55f0479@@$$FYGHPAUlua_State@@@Z 10016be0 f   luaglue.obj
 0001:00015c14       ?luaB_rawget@?A0xd55f0479@@$$FYGHPAUlua_State@@@Z 10016c14 f   luaglue.obj
 0001:00015c44       ?luaB_setmetatable@?A0xd55f0479@@$$FYGHPAUlua_State@@@Z 10016c44 f   luaglue.obj
 0001:00015ca4       ?luaB_getmetatable@?A0xd55f0479@@$$FYGHPAUlua_State@@@Z 10016ca4 f   luaglue.obj
 0001:00015cdc       ?luaL_addlstring@@$$FYGXPAUluaL_Buffer@@PBDI@Z 10016cdc f   luaglue.obj
 0001:00015d18       ?luaL_callmeta@@$$FYGHPAUlua_State@@HPBD@Z 10016d18 f   luaglue.obj
 0001:00015d64       ?luaL_optinteger@@$$FYGHPAUlua_State@@HH@Z 10016d64 f   luaglue.obj
 0001:00015d88       ?luaL_optnumber@@$$FYGNPAUlua_State@@HN@Z 10016d88 f   luaglue.obj
 0001:00015db0       ?luaL_optlstring@@$$FYGPBDPAUlua_State@@HPBDPAI@Z 10016db0 f   luaglue.obj
 0001:00015dec       ?luaL_checkoption@@$$FYGHPAUlua_State@@HPBDQBQBD@Z 10016dec f   luaglue.obj
 0001:00015e4c       ?tconcat@?A0xd55f0479@@$$FYGHPAUlua_State@@@Z 10016e4c f   luaglue.obj
 0001:00015ed4       ?tremove@?A0xd55f0479@@$$FYGHPAUlua_State@@@Z 10016ed4 f   luaglue.obj
 0001:00015f40       ?addquoted@?A0xd55f0479@@$$FYGXPAUlua_State@@PAUluaL_Buffer@@H@Z 10016f40 f   luaglue.obj
 0001:00016198       ?add_s@?A0xd55f0479@@$$FYGXPAUMatchState@@PAUluaL_Buffer@@PBD2@Z 10017198 f   luaglue.obj
 0001:0001624c       ?gmatch@?A0xd55f0479@@$$FYGHPAUlua_State@@@Z 1001724c f   luaglue.obj
 0001:00016288       ?str_find_aux@?A0xd55f0479@@$$FYGHPAUlua_State@@H@Z 10017288 f   luaglue.obj
 0001:000163b0       ?writer@?A0xd55f0479@@$$FYGHPAUlua_State@@PBXIPAX@Z 100173b0 f   luaglue.obj
 0001:000163c8       ?str_byte@?A0xd55f0479@@$$FYGHPAUlua_State@@@Z 100173c8 f   luaglue.obj
 0001:00016460       ?str_rep@?A0xd55f0479@@$$FYGHPAUlua_State@@@Z 10017460 f   luaglue.obj
 0001:000164a4       ?str_sub@?A0xd55f0479@@$$FYGHPAUlua_State@@@Z 100174a4 f   luaglue.obj
 0001:0001650c       ?lastlistfield@?A0xd55f0479@@$$FYGXPAUFuncState@@PAUConsControl@@@Z 1001750c f   luaglue.obj
 0001:0001657c       ?closelistfield@?A0xd55f0479@@$$FYGXPAUFuncState@@PAUConsControl@@@Z 1001757c f   luaglue.obj
 0001:000165c0       ?adjust_assign@?A0xd55f0479@@$$FYGXPAULexState@@HHPAUexpdesc@@@Z 100175c0 f   luaglue.obj
 0001:00016628       ?os_exit@?A0xd55f0479@@$$FYGHPAUlua_State@@@Z 10017628 f   luaglue.obj
 0001:00016644       ?os_setlocale@?A0xd55f0479@@$$FYGHPAUlua_State@@@Z 10017644 f   luaglue.obj
 0001:00016688       ?os_difftime@?A0xd55f0479@@$$FYGHPAUlua_State@@@Z 10017688 f   luaglue.obj
 0001:000166bc       ?os_date@?A0xd55f0479@@$$FYGHPAUlua_State@@@Z 100176bc f   luaglue.obj
 0001:00016854       ?os_execute@?A0xd55f0479@@$$FYGHPAUlua_State@@@Z 10017854 f   luaglue.obj
 0001:00016878       ?ll_loadfunc@?A0xd55f0479@@$$FYGHPAUlua_State@@PBD1@Z 10017878 f   luaglue.obj
 0001:000168c0       ?luaX_lookahead@@$$FYGXPAULexState@@@Z 100178c0 f   luaglue.obj
 0001:000168dc       ?luaX_next@@$$FYGXPAULexState@@@Z 100178dc f   luaglue.obj
 0001:00016924       ?f_setvbuf@?A0xd55f0479@@$$FYGHPAUlua_State@@@Z 10017924 f   luaglue.obj
 0001:00016980       ?f_seek@?A0xd55f0479@@$$FYGHPAUlua_State@@@Z 10017980 f   luaglue.obj
 0001:000169e0       ?f_write@?A0xd55f0479@@$$FYGHPAUlua_State@@@Z 100179e0 f   luaglue.obj
 0001:000169fc       ?io_write@?A0xd55f0479@@$$FYGHPAUlua_State@@@Z 100179fc f   luaglue.obj
 0001:00016a1c       ?io_readline@?A0xd55f0479@@$$FYGHPAUlua_State@@@Z 10017a1c f   luaglue.obj
 0001:00016aa0       ?g_read@?A0xd55f0479@@$$FYGHPAUlua_State@@PAU_iobuf@@H@Z 10017aa0 f   luaglue.obj
 0001:00016bc0       ?aux_lines@?A0xd55f0479@@$$FYGXPAUlua_State@@HH@Z 10017bc0 f   luaglue.obj
 0001:00016be8       ?io_output@?A0xd55f0479@@$$FYGHPAUlua_State@@@Z 10017be8 f   luaglue.obj
 0001:00016c04       ?io_input@?A0xd55f0479@@$$FYGHPAUlua_State@@@Z 10017c04 f   luaglue.obj
 0001:00016c20       ?io_popen@?A0xd55f0479@@$$FYGHPAUlua_State@@@Z 10017c20 f   luaglue.obj
 0001:00016c68       ?io_open@?A0xd55f0479@@$$FYGHPAUlua_State@@@Z 10017c68 f   luaglue.obj
 0001:00016cb0       ?db_sethook@?A0xd55f0479@@$$FYGHPAUlua_State@@@Z 10017cb0 f   luaglue.obj
 0001:00016d4c       ?db_setupvalue@?A0xd55f0479@@$$FYGHPAUlua_State@@@Z 10017d4c f   luaglue.obj
 0001:00016d6c       ?db_getupvalue@?A0xd55f0479@@$$FYGHPAUlua_State@@@Z 10017d6c f   luaglue.obj
 0001:00016d84       ?db_getinfo@?A0xd55f0479@@$$FYGHPAUlua_State@@@Z 10017d84 f   luaglue.obj
 0001:00016f34       ?luaK_goiffalse@?A0xd55f0479@@$$FYGXPAUFuncState@@PAUexpdesc@@@Z 10017f34 f   luaglue.obj
 0001:00016f8c       ?luaK_goiftrue@@$$FYGXPAUFuncState@@PAUexpdesc@@@Z 10017f8c f   luaglue.obj
 0001:0001700c       ?luaK_exp2anyreg@@$$FYGHPAUFuncState@@PAUexpdesc@@@Z 1001800c f   luaglue.obj
 0001:00017064       ?base_open@?A0xd55f0479@@$$FYGXPAUlua_State@@@Z 10018064 f   luaglue.obj
 0001:00017130       ?luaB_auxwrap@?A0xd55f0479@@$$FYGHPAUlua_State@@@Z 10018130 f   luaglue.obj
 0001:00017184       ?luaB_coresume@?A0xd55f0479@@$$FYGHPAUlua_State@@@Z 10018184 f   luaglue.obj
 0001:000171e8       ?luaB_tostring@?A0xd55f0479@@$$FYGHPAUlua_State@@@Z 100181e8 f   luaglue.obj
 0001:000172a0       ?luaB_unpack@?A0xd55f0479@@$$FYGHPAUlua_State@@@Z 100182a0 f   luaglue.obj
 0001:00017324       ?luaB_assert@?A0xd55f0479@@$$FYGHPAUlua_State@@@Z 10018324 f   luaglue.obj
 0001:00017364       ?luaB_collectgarbage@?A0xd55f0479@@$$FYGHPAUlua_State@@@Z 10018364 f   luaglue.obj
 0001:000173f0       ?getfunc@?A0xd55f0479@@$$FYGXPAUlua_State@@H@Z 100183f0 f   luaglue.obj
 0001:00017474       ?luaB_error@?A0xd55f0479@@$$FYGHPAUlua_State@@@Z 10018474 f   luaglue.obj
 0001:000174bc       ?luaB_tonumber@?A0xd55f0479@@$$FYGHPAUlua_State@@@Z 100184bc f   luaglue.obj
 0001:00017554       ?luaL_addstring@@$$FYGXPAUluaL_Buffer@@PBD@Z 10018554 f   luaglue.obj
 0001:00017570       ?luaL_gsub@@$$FYGPBDPAUlua_State@@PBD11@Z 10018570 f   luaglue.obj
 0001:000175cc       ?str_format@?A0xd55f0479@@$$FYGHPAUlua_State@@@Z 100185cc f   luaglue.obj
 0001:00017858       ?add_value@?A0xd55f0479@@$$FYGXPAUMatchState@@PAUluaL_Buffer@@PBD2@Z 10018858 f   luaglue.obj
 0001:00017908       ?str_match@?A0xd55f0479@@$$FYGHPAUlua_State@@@Z 10018908 f   luaglue.obj
 0001:00017920       ?str_find@?A0xd55f0479@@$$FYGHPAUlua_State@@@Z 10018920 f   luaglue.obj
 0001:00017938       ?str_dump@?A0xd55f0479@@$$FYGHPAUlua_State@@@Z 10018938 f   luaglue.obj
 0001:00017984       ?str_checkname@?A0xd55f0479@@$$FYGPATTString@@PAULexState@@@Z 10018984 f   luaglue.obj
 0001:000179ac       ?checknext@?A0xd55f0479@@$$FYGXPAULexState@@H@Z 100189ac f   luaglue.obj
 0001:000179c8       ?testnext@?A0xd55f0479@@$$FYGHPAULexState@@H@Z 100189c8 f   luaglue.obj
 0001:000179ec       ?mkfuncname@?A0xd55f0479@@$$FYGPBDPAUlua_State@@PBD@Z 100189ec f   luaglue.obj
 0001:00017a38       ?findfile@?A0xd55f0479@@$$FYGPBDPAUlua_State@@PBD1@Z 10018a38 f   luaglue.obj
 0001:00017ae0       ?ll_loadlib@?A0xd55f0479@@$$FYGHPAUlua_State@@@Z 10018ae0 f   luaglue.obj
 0001:00017b3c       ?setprogdir@?A0xd55f0479@@$$FYGXPAUlua_State@@@Z 10018b3c f   luaglue.obj
 0001:00017b9c       ?f_read@?A0xd55f0479@@$$FYGHPAUlua_State@@@Z 10018b9c f   luaglue.obj
 0001:00017bb8       ?io_read@?A0xd55f0479@@$$FYGHPAUlua_State@@@Z 10018bb8 f   luaglue.obj
 0001:00017bd8       ?f_lines@?A0xd55f0479@@$$FYGHPAUlua_State@@@Z 10018bd8 f   luaglue.obj
 0001:00017bf8       ?luaK_exp2val@@$$FYGXPAUFuncState@@PAUexpdesc@@@Z 10018bf8 f   luaglue.obj
 0001:00017c24       ?luaopen_base@@$$FYGHPAUlua_State@@@Z 10018c24 f   luaglue.obj
 0001:00017c4c       ?luaB_cowrap@?A0xd55f0479@@$$FYGHPAUlua_State@@@Z 10018c4c f   luaglue.obj
 0001:00017c70       ?luaB_setfenv@?A0xd55f0479@@$$FYGHPAUlua_State@@@Z 10018c70 f   luaglue.obj
 0001:00017cf0       ?luaB_getfenv@?A0xd55f0479@@$$FYGHPAUlua_State@@@Z 10018cf0 f   luaglue.obj
 0001:00017d24       ?str_gsub@?A0xd55f0479@@$$FYGHPAUlua_State@@@Z 10018d24 f   luaglue.obj
 0001:00017e3c       ?forbody@?A0xd55f0479@@$$FYGXPAULexState@@HHHH@Z 10018e3c f   luaglue.obj
 0001:00017ee8       ?explist1@?A0xd55f0479@@$$FYGHPAULexState@@PAUexpdesc@@@Z 10018ee8 f   luaglue.obj
 0001:00017f24       ?parlist@?A0xd55f0479@@$$FYGXPAULexState@@@Z 10018f24 f   luaglue.obj
 0001:00017ff4       ?yindex@?A0xd55f0479@@$$FYGXPAULexState@@PAUexpdesc@@@Z 10018ff4 f   luaglue.obj
 0001:00018024       ?singlevar@?A0xd55f0479@@$$FYGXPAULexState@@PAUexpdesc@@@Z 10019024 f   luaglue.obj
 0001:00018058       ?checkname@?A0xd55f0479@@$$FYGXPAULexState@@PAUexpdesc@@@Z 10019058 f   luaglue.obj
 0001:00018074       ?check_match@?A0xd55f0479@@$$FYGXPAULexState@@HHH@Z 10019074 f   luaglue.obj
 0001:000180c0       ?setpath@?A0xd55f0479@@$$FYGXPAUlua_State@@PBD11@Z 100190c0 f   luaglue.obj
 0001:00018118       ?loader_Croot@?A0xd55f0479@@$$FYGHPAUlua_State@@@Z 10019118 f   luaglue.obj
 0001:0001819c       ?loader_C@?A0xd55f0479@@$$FYGHPAUlua_State@@@Z 1001919c f   luaglue.obj
 0001:000181e4       ?io_lines@?A0xd55f0479@@$$FYGHPAUlua_State@@@Z 100191e4 f   luaglue.obj
 0001:0001824c       ?luaK_exp2RK@@$$FYGHPAUFuncState@@PAUexpdesc@@@Z 1001924c f   luaglue.obj
 0001:00018300       ?retstat@?A0xd55f0479@@$$FYGXPAULexState@@@Z 10019300 f   luaglue.obj
 0001:000183b8       ?localstat@?A0xd55f0479@@$$FYGXPAULexState@@@Z 100193b8 f   luaglue.obj
 0001:00018410       ?forlist@?A0xd55f0479@@$$FYGXPAULexState@@PATTString@@@Z 10019410 f   luaglue.obj
 0001:000184e4       ?prefixexp@?A0xd55f0479@@$$FYGXPAULexState@@PAUexpdesc@@@Z 100194e4 f   luaglue.obj
 0001:00018544       ?body@?A0xd55f0479@@$$FYGXPAULexState@@PAUexpdesc@@HH@Z 10019544 f   luaglue.obj
 0001:000185c8       ?recfield@?A0xd55f0479@@$$FYGXPAULexState@@PAUConsControl@@@Z 100195c8 f   luaglue.obj
 0001:00018664       ?luaopen_package@@$$FYGHPAUlua_State@@@Z 10019664 f   luaglue.obj
 0001:0001879c       ?luaK_infix@@$$FYGXPAUFuncState@@W4BinOpr@@PAUexpdesc@@@Z 1001979c f   luaglue.obj
 0001:00018828       ?codecomp@?A0xd55f0479@@$$FYGXPAUFuncState@@W4OpCode@@HPAUexpdesc@@2@Z 10019828 f   luaglue.obj
 0001:00018878       ?codearith@?A0xd55f0479@@$$FYGXPAUFuncState@@W4OpCode@@PAUexpdesc@@2@Z 10019878 f   luaglue.obj
 0001:000188e8       ?luaK_indexed@@$$FYGXPAUFuncState@@PAUexpdesc@@1@Z 100198e8 f   luaglue.obj
 0001:00018908       ?luaK_self@@$$FYGXPAUFuncState@@PAUexpdesc@@1@Z 10019908 f   luaglue.obj
 0001:00018958       ?luaK_storevar@@$$FYGXPAUFuncState@@PAUexpdesc@@1@Z 10019958 f   luaglue.obj
 0001:000189ec       ?localfunc@?A0xd55f0479@@$$FYGXPAULexState@@@Z 100199ec f   luaglue.obj
 0001:00018a64       ?constructor@?A0xd55f0479@@$$FYGXPAULexState@@PAUexpdesc@@@Z 10019a64 f   luaglue.obj
 0001:00018bbc       ?field@?A0xd55f0479@@$$FYGXPAULexState@@PAUexpdesc@@@Z 10019bbc f   luaglue.obj
 0001:00018bf0       ?luaK_posfix@@$$FYGXPAUFuncState@@W4BinOpr@@PAUexpdesc@@2@Z 10019bf0 f   luaglue.obj
 0001:00018da4       ?luaK_prefix@@$$FYGXPAUFuncState@@W4UnOpr@@PAUexpdesc@@@Z 10019da4 f   luaglue.obj
 0001:00018e24       ?funcname@?A0xd55f0479@@$$FYGHPAULexState@@PAUexpdesc@@@Z 10019e24 f   luaglue.obj
 0001:00018e64       ?funcargs@?A0xd55f0479@@$$FYGXPAULexState@@PAUexpdesc@@@Z 10019e64 f   luaglue.obj
 0001:00018f60       ?funcstat@?A0xd55f0479@@$$FYGXPAULexState@@H@Z 10019f60 f   luaglue.obj
 0001:00018fa0       ?primaryexp@?A0xd55f0479@@$$FYGXPAULexState@@PAUexpdesc@@@Z 10019fa0 f   luaglue.obj
 0001:00019404       ?assignment@?A0xd55f0479@@$$FYGXPAULexState@@PAULHS_assign@@H@Z 1001a404 f   luaglue.obj
 0001:00019510       ?simpleexp@?A0xd55f0479@@$$FYGXPAULexState@@PAUexpdesc@@@Z 1001a510 f   luaglue.obj
 0001:00019874       ?exprstat@?A0xd55f0479@@$$FYGXPAULexState@@@Z 1001a874 f   luaglue.obj
 0001:000198d8       ?subexpr@?A0xd55f0479@@$$FYG?AW4BinOpr@@PAULexState@@PAUexpdesc@@I@Z 1001a8d8 f   luaglue.obj
 0001:00019990       ?expr@?A0xd55f0479@@$$FYGXPAULexState@@PAUexpdesc@@@Z 1001a990 f   luaglue.obj
 0001:000199a8       ?exp1@?A0xd55f0479@@$$FYGHPAULexState@@@Z 1001a9a8 f   luaglue.obj
 0001:000199d0       ?cond@?A0xd55f0479@@$$FYGHPAULexState@@@Z 1001a9d0 f   luaglue.obj
 0001:00019a04       ?test_then_block@?A0xd55f0479@@$$FYGHPAULexState@@@Z 1001aa04 f   luaglue.obj
 0001:00019a34       ?fornum@?A0xd55f0479@@$$FYGXPAULexState@@PATTString@@H@Z 1001aa34 f   luaglue.obj
 0001:00019af0       ?repeatstat@?A0xd55f0479@@$$FYGXPAULexState@@H@Z 1001aaf0 f   luaglue.obj
 0001:00019b8c       ?whilestat@?A0xd55f0479@@$$FYGXPAULexState@@H@Z 1001ab8c f   luaglue.obj
 0001:00019bf8       ?ifstat@?A0xd55f0479@@$$FYGXPAULexState@@H@Z 1001abf8 f   luaglue.obj
 0001:00019c90       ?forstat@?A0xd55f0479@@$$FYGXPAULexState@@H@Z 1001ac90 f   luaglue.obj
 0001:00019d08       ?statement@?A0xd55f0479@@$$FYGHPAULexState@@@Z 1001ad08 f   luaglue.obj
 0001:00019e2c       ?chunk@?A0xd55f0479@@$$FYGXPAULexState@@@Z 1001ae2c f   luaglue.obj
 0001:00019e88       ?luaY_parser@@$$FYGPAUProto@@PAUlua_State@@PAUZio@@PAUMbuffer@@PBD@Z 1001ae88 f   luaglue.obj
 0001:00019eec       ?f_parser@?A0xd55f0479@@$$FYGXPAUlua_State@@PAX@Z 1001aeec f   luaglue.obj
 0001:00019fb4       ?luaD_protectedparser@@$$FYGHPAUlua_State@@PAUZio@@PBD@Z 1001afb4 f   luaglue.obj
 0001:0001a028       ?lua_load@@$$FYGHPAUlua_State@@P6GPBD0PAXPAI@Z1PBD@Z 1001b028 f   luaglue.obj
 0001:0001a058       ?luaB_load@?A0xd55f0479@@$$FYGHPAUlua_State@@@Z 1001b058 f   luaglue.obj
 0001:0001a09c       ?luaL_loadbuffer@@$$FYGHPAUlua_State@@PBDI1@Z 1001b09c f   luaglue.obj
 0001:0001a0c4       ?luaL_loadfile@@$$FYGHPAUlua_State@@PBD@Z 1001b0c4 f   luaglue.obj
 0001:0001a224       ?handle_script@?A0xd55f0479@@$$FYGHPAUlua_State@@PAPADH@Z 1001b224 f   luaglue.obj
 0001:0001a2a8       ?loadline@?A0xd55f0479@@$$FYGHPAUlua_State@@@Z 1001b2a8 f   luaglue.obj
 0001:0001a324       ?dostring@?A0xd55f0479@@$$FYGHPAUlua_State@@PBD1@Z 1001b324 f   luaglue.obj
 0001:0001a35c       ?dofile@?A0xd55f0479@@$$FYGHPAUlua_State@@PBD@Z 1001b35c f   luaglue.obj
 0001:0001a390       ?loader_Lua@?A0xd55f0479@@$$FYGHPAUlua_State@@@Z 1001b390 f   luaglue.obj
 0001:0001a3d0       ?db_debug@?A0xd55f0479@@$$FYGHPAUlua_State@@@Z 1001b3d0 f   luaglue.obj
 0001:0001a46c       ?luaB_dofile@?A0xd55f0479@@$$FYGHPAUlua_State@@@Z 1001b46c f   luaglue.obj
 0001:0001a4ac       ?luaB_loadfile@?A0xd55f0479@@$$FYGHPAUlua_State@@@Z 1001b4ac f   luaglue.obj
 0001:0001a4d4       ?luaB_loadstring@?A0xd55f0479@@$$FYGHPAUlua_State@@@Z 1001b4d4 f   luaglue.obj
 0001:0001a508       ?luaL_loadstring@@$$FYGHPAUlua_State@@PBD@Z 1001b508 f   luaglue.obj
 0001:0001a528       ?handle_luainit@?A0xd55f0479@@$$FYGHPAUlua_State@@@Z 1001b528 f   luaglue.obj
 0001:0001a568       ?runargs@?A0xd55f0479@@$$FYGHPAUlua_State@@PAPADH@Z 1001b568 f   luaglue.obj
 0001:0001a600       ?dotty@?A0xd55f0479@@$$FYGXPAUlua_State@@@Z 1001b600 f   luaglue.obj
 0001:0001a6bc       ?pmain@?A0xd55f0479@@$$FYGHPAUlua_State@@@Z 1001b6bc f   luaglue.obj
 0001:0001a7cc       ?main@@$$HYAHHPAPAD@Z      1001b7cc f   luaglue.obj
 0001:0001a830       ?arrayindex@?A0xd55f0479@@$$FYGHPBUlua_TValue@@@Z 1001b830 f    CIL library: CIL module
 0001:0001a830       ?arrayindex@?A0xd55f0479@@YGHPBUlua_TValue@@@Z 1001b830 f   luaglue.obj
 0001:0001a870       ?luaO_pushfstring@@$$FYAPBDPAUlua_State@@PBDZZ 1001b870 f    CIL library: CIL module
 0001:0001a870       ?luaO_pushfstring@@YAPBDPAUlua_State@@PBDZZ 1001b870 f   luaglue.obj
 0001:0001a8a4       ?time@?A0x9d2b4c3f@@$$J0YA_JPA_J@Z 1001b8a4 f   LuaDLL.obj
 0001:0001a8bc       ?localtime@?A0x9d2b4c3f@@$$J0YAPAUtm@@PB_J@Z 1001b8bc f   LuaDLL.obj
 0001:0001a8e0       ?lua_tointeger@@YGHPAUlua_State@@H@Z 1001b8e0 f   luaglue.obj
 0001:0001a8e0       ?lua_tointeger@@$$FYGHPAUlua_State@@H@Z 1001b8e0 f    CIL library: CIL module
 0001:0001a940       ?luaH_get@@$$FYGPBUlua_TValue@@PAUTable@@PBU1@@Z 1001b940 f    CIL library: CIL module
 0001:0001a940       ?luaH_get@@YGPBUlua_TValue@@PAUTable@@PBU1@@Z 1001b940 f   luaglue.obj
 0001:0001a9f0       ?luaG_runerror@@$$FYAXPAUlua_State@@PBDZZ 1001b9f0 f    CIL library: CIL module
 0001:0001a9f0       ?luaG_runerror@@YAXPAUlua_State@@PBDZZ 1001b9f0 f   luaglue.obj
 0001:0001aa30       ?luaO_pushvfstring@@$$FYGPBDPAUlua_State@@PBDPAD@Z 1001ba30 f    CIL library: CIL module
 0001:0001aa30       ?luaO_pushvfstring@@YGPBDPAUlua_State@@PBDPAD@Z 1001ba30 f   luaglue.obj
 0001:0001ad80       ?lua_pushfstring@@$$FYAPBDPAUlua_State@@PBDZZ 1001bd80 f    CIL library: CIL module
 0001:0001ad80       ?lua_pushfstring@@YAPBDPAUlua_State@@PBDZZ 1001bd80 f   luaglue.obj
 0001:0001add0       ?luaL_error@@YAHPAUlua_State@@PBDZZ 1001bdd0 f   luaglue.obj
 0001:0001add0       ?luaL_error@@$$FYAHPAUlua_State@@PBDZZ 1001bdd0 f    CIL library: CIL module
 0001:0001ae20       __CorDllMain@12            1001be20 f   MSCOREE:mscoree.dll
 0001:0001ae28       ???__E?Initialized@CurrentDomain@<CrtImplementationDetails>@@$$Q2HA@@YMXXZ@?A0x250abb45@@$$FYMXXZ 1001be28 f i MSVCMRT:mstartup.obj
 0001:0001ae3c       ???__E?Uninitialized@CurrentDomain@<CrtImplementationDetails>@@$$Q2HA@@YMXXZ@?A0x250abb45@@$$FYMXXZ 1001be3c f i MSVCMRT:mstartup.obj
 0001:0001ae50       ???__E?IsDefaultDomain@CurrentDomain@<CrtImplementationDetails>@@$$Q2_NA@@YMXXZ@?A0x250abb45@@$$FYMXXZ 1001be50 f i MSVCMRT:mstartup.obj
 0001:0001ae64       ???__E?InitializedVtables@CurrentDomain@<CrtImplementationDetails>@@$$Q2W4State@Progress@2@A@@YMXXZ@?A0x250abb45@@$$FYMXXZ 1001be64 f i MSVCMRT:mstartup.obj
 0001:0001ae78       ???__E?InitializedNative@CurrentDomain@<CrtImplementationDetails>@@$$Q2W4State@Progress@2@A@@YMXXZ@?A0x250abb45@@$$FYMXXZ 1001be78 f i MSVCMRT:mstartup.obj
 0001:0001ae8c       ???__E?InitializedPerProcess@CurrentDomain@<CrtImplementationDetails>@@$$Q2W4State@Progress@2@A@@YMXXZ@?A0x250abb45@@$$FYMXXZ 1001be8c f i MSVCMRT:mstartup.obj
 0001:0001aea0       ???__E?InitializedPerAppDomain@CurrentDomain@<CrtImplementationDetails>@@$$Q2W4State@Progress@2@A@@YMXXZ@?A0x250abb45@@$$FYMXXZ 1001bea0 f i MSVCMRT:mstartup.obj
 0001:0001aeb3       __t2m@???__E?Initialized@CurrentDomain@<CrtImplementationDetails>@@$$Q2HA@@YMXXZ@?A0x250abb45@@YMXXZ 1001beb3 f i MSVCMRT:mstartup.obj
 0001:0001aeb9       __t2m@???__E?Uninitialized@CurrentDomain@<CrtImplementationDetails>@@$$Q2HA@@YMXXZ@?A0x250abb45@@YMXXZ 1001beb9 f i MSVCMRT:mstartup.obj
 0001:0001aebf       __t2m@???__E?IsDefaultDomain@CurrentDomain@<CrtImplementationDetails>@@$$Q2_NA@@YMXXZ@?A0x250abb45@@YMXXZ 1001bebf f i MSVCMRT:mstartup.obj
 0001:0001aec5       __t2m@???__E?InitializedVtables@CurrentDomain@<CrtImplementationDetails>@@$$Q2W4State@Progress@2@A@@YMXXZ@?A0x250abb45@@YMXXZ 1001bec5 f i MSVCMRT:mstartup.obj
 0001:0001aecb       __t2m@???__E?InitializedNative@CurrentDomain@<CrtImplementationDetails>@@$$Q2W4State@Progress@2@A@@YMXXZ@?A0x250abb45@@YMXXZ 1001becb f i MSVCMRT:mstartup.obj
 0001:0001aed1       __t2m@???__E?InitializedPerProcess@CurrentDomain@<CrtImplementationDetails>@@$$Q2W4State@Progress@2@A@@YMXXZ@?A0x250abb45@@YMXXZ 1001bed1 f i MSVCMRT:mstartup.obj
 0001:0001aed7       __t2m@???__E?InitializedPerAppDomain@CurrentDomain@<CrtImplementationDetails>@@$$Q2W4State@Progress@2@A@@YMXXZ@?A0x250abb45@@YMXXZ 1001bed7 f i MSVCMRT:mstartup.obj
 0002:00000000       __imp__FreeLibrary@4       1001c000     kernel32:KERNEL32.dll
 0002:00000004       __imp__GetLastError@0      1001c004     kernel32:KERNEL32.dll
 0002:00000008       __imp__GetProcAddress@8    1001c008     kernel32:KERNEL32.dll
 0002:0000000c       __imp__LoadLibraryA@4      1001c00c     kernel32:KERNEL32.dll
 0002:00000010       __imp__GetModuleFileNameA@12 1001c010     kernel32:KERNEL32.dll
 0002:00000014       __imp__FormatMessageA@28   1001c014     kernel32:KERNEL32.dll
 0002:00000018       __imp__IsDebuggerPresent@0 1001c018     kernel32:KERNEL32.dll
 0002:0000001c       __imp__SetUnhandledExceptionFilter@4 1001c01c     kernel32:KERNEL32.dll
 0002:00000020       __imp__UnhandledExceptionFilter@4 1001c020     kernel32:KERNEL32.dll
 0002:00000024       __imp__GetCurrentProcess@0 1001c024     kernel32:KERNEL32.dll
 0002:00000028       __imp__TerminateProcess@8  1001c028     kernel32:KERNEL32.dll
 0002:0000002c       __imp__GetSystemTimeAsFileTime@4 1001c02c     kernel32:KERNEL32.dll
 0002:00000030       __imp__GetCurrentProcessId@0 1001c030     kernel32:KERNEL32.dll
 0002:00000034       __imp__GetCurrentThreadId@0 1001c034     kernel32:KERNEL32.dll
 0002:00000038       __imp__GetTickCount@0      1001c038     kernel32:KERNEL32.dll
 0002:0000003c       __imp__QueryPerformanceCounter@4 1001c03c     kernel32:KERNEL32.dll
 0002:00000040       __imp__DisableThreadLibraryCalls@4 1001c040     kernel32:KERNEL32.dll
 0002:00000044       __imp__InterlockedCompareExchange@12 1001c044     kernel32:KERNEL32.dll
 0002:00000048       __imp__Sleep@4             1001c048     kernel32:KERNEL32.dll
 0002:0000004c       __imp__InterlockedExchange@8 1001c04c     kernel32:KERNEL32.dll
 0002:00000050       \177KERNEL32_NULL_THUNK_DATA 1001c050     kernel32:KERNEL32.dll
 0002:00000054       __imp___crt_debugger_hook  1001c054     MSVCRT:MSVCR90.dll
 0002:00000058       __imp___except_handler4_common 1001c058     MSVCRT:MSVCR90.dll
 0002:0000005c       __imp___onexit             1001c05c     MSVCRT:MSVCR90.dll
 0002:00000060       __imp___lock               1001c060     MSVCRT:MSVCR90.dll
 0002:00000064       __imp____dllonexit         1001c064     MSVCRT:MSVCR90.dll
 0002:00000068       __imp___unlock             1001c068     MSVCRT:MSVCR90.dll
 0002:0000006c       __imp____clean_type_info_names_internal 1001c06c     MSVCRT:MSVCR90.dll
 0002:00000070       __imp_?_type_info_dtor_internal_method@type_info@@QAEXXZ 1001c070     MSVCRT:MSVCR90.dll
 0002:00000074       __imp_?terminate@@YAXXZ    1001c074     MSVCRT:MSVCR90.dll
 0002:00000078       __imp____CppXcptFilter     1001c078     MSVCRT:MSVCR90.dll
 0002:0000007c       __imp___adjust_fdiv        1001c07c     MSVCRT:MSVCR90.dll
 0002:00000080       __imp___amsg_exit          1001c080     MSVCRT:MSVCR90.dll
 0002:00000084       __imp___initterm_e         1001c084     MSVCRT:MSVCR90.dll
 0002:00000088       __imp___initterm           1001c088     MSVCRT:MSVCR90.dll
 0002:0000008c       __imp___decode_pointer     1001c08c     MSVCRT:MSVCR90.dll
 0002:00000090       __imp__strlen              1001c090     MSVCRT:MSVCR90.dll
 0002:00000094       __imp___localtime64        1001c094     MSVCRT:MSVCR90.dll
 0002:00000098       __imp___time64             1001c098     MSVCRT:MSVCR90.dll
 0002:0000009c       __imp__memcpy              1001c09c     MSVCRT:MSVCR90.dll
 0002:000000a0       __imp__fscanf              1001c0a0     MSVCRT:MSVCR90.dll
 0002:000000a4       __imp__tmpfile             1001c0a4     MSVCRT:MSVCR90.dll
 0002:000000a8       __imp__atan2               1001c0a8     MSVCRT:MSVCR90.dll
 0002:000000ac       __imp__strtod              1001c0ac     MSVCRT:MSVCR90.dll
 0002:000000b0       __imp__rename              1001c0b0     MSVCRT:MSVCR90.dll
 0002:000000b4       __imp__sprintf             1001c0b4     MSVCRT:MSVCR90.dll
 0002:000000b8       __imp___mktime64           1001c0b8     MSVCRT:MSVCR90.dll
 0002:000000bc       __imp__feof                1001c0bc     MSVCRT:MSVCR90.dll
 0002:000000c0       __imp__strncat             1001c0c0     MSVCRT:MSVCR90.dll
 0002:000000c4       __imp___gmtime64           1001c0c4     MSVCRT:MSVCR90.dll
 0002:000000c8       __imp__tmpnam              1001c0c8     MSVCRT:MSVCR90.dll
 0002:000000cc       __imp__sqrt                1001c0cc     MSVCRT:MSVCR90.dll
 0002:000000d0       __imp__cos                 1001c0d0     MSVCRT:MSVCR90.dll
 0002:000000d4       __imp__memcmp              1001c0d4     MSVCRT:MSVCR90.dll
 0002:000000d8       __imp__ceil                1001c0d8     MSVCRT:MSVCR90.dll
 0002:000000dc       __imp__modf                1001c0dc     MSVCRT:MSVCR90.dll
 0002:000000e0       __imp__ldexp               1001c0e0     MSVCRT:MSVCR90.dll
 0002:000000e4       __imp__isspace             1001c0e4     MSVCRT:MSVCR90.dll
 0002:000000e8       __imp___pclose             1001c0e8     MSVCRT:MSVCR90.dll
 0002:000000ec       __imp__pow                 1001c0ec     MSVCRT:MSVCR90.dll
 0002:000000f0       __imp__strerror            1001c0f0     MSVCRT:MSVCR90.dll
 0002:000000f4       __imp___isatty             1001c0f4     MSVCRT:MSVCR90.dll
 0002:000000f8       __imp__log                 1001c0f8     MSVCRT:MSVCR90.dll
 0002:000000fc       __imp__fputs               1001c0fc     MSVCRT:MSVCR90.dll
 0002:00000100       __imp__ungetc              1001c100     MSVCRT:MSVCR90.dll
 0002:00000104       __imp__strstr              1001c104     MSVCRT:MSVCR90.dll
 0002:00000108       __imp____iob_func          1001c108     MSVCRT:MSVCR90.dll
 0002:0000010c       __imp__strcpy              1001c10c     MSVCRT:MSVCR90.dll
 0002:00000110       __imp____CxxRegisterExceptionObject 1001c110     MSVCRT:MSVCR90.dll
 0002:00000114       __imp__strchr              1001c114     MSVCRT:MSVCR90.dll
 0002:00000118       __imp__signal              1001c118     MSVCRT:MSVCR90.dll
 0002:0000011c       __imp__memchr              1001c11c     MSVCRT:MSVCR90.dll
 0002:00000120       __imp___encoded_null       1001c120     MSVCRT:MSVCR90.dll
 0002:00000124       __imp__tanh                1001c124     MSVCRT:MSVCR90.dll
 0002:00000128       __imp___popen              1001c128     MSVCRT:MSVCR90.dll
 0002:0000012c       __imp__system              1001c12c     MSVCRT:MSVCR90.dll
 0002:00000130       __imp___errno              1001c130     MSVCRT:MSVCR90.dll
 0002:00000134       __imp__localeconv          1001c134     MSVCRT:MSVCR90.dll
 0002:00000138       __imp__remove              1001c138     MSVCRT:MSVCR90.dll
 0002:0000013c       __imp__sinh                1001c13c     MSVCRT:MSVCR90.dll
 0002:00000140       __imp__isalnum             1001c140     MSVCRT:MSVCR90.dll
 0002:00000144       __imp__tan                 1001c144     MSVCRT:MSVCR90.dll
 0002:00000148       __imp__ispunct             1001c148     MSVCRT:MSVCR90.dll
 0002:0000014c       __imp__strcoll             1001c14c     MSVCRT:MSVCR90.dll
 0002:00000150       __imp__tolower             1001c150     MSVCRT:MSVCR90.dll
 0002:00000154       __imp__strncpy             1001c154     MSVCRT:MSVCR90.dll
 0002:00000158       __imp__fgets               1001c158     MSVCRT:MSVCR90.dll
 0002:0000015c       __imp__fmod                1001c15c     MSVCRT:MSVCR90.dll
 0002:00000160       __imp__fopen               1001c160     MSVCRT:MSVCR90.dll
 0002:00000164       __imp__setvbuf             1001c164     MSVCRT:MSVCR90.dll
 0002:00000168       __imp__isalpha             1001c168     MSVCRT:MSVCR90.dll
 0002:0000016c       __imp__fread               1001c16c     MSVCRT:MSVCR90.dll
 0002:00000170       __imp____CxxExceptionFilter 1001c170     MSVCRT:MSVCR90.dll
 0002:00000174       __imp__fprintf             1001c174     MSVCRT:MSVCR90.dll
 0002:00000178       __imp__clock               1001c178     MSVCRT:MSVCR90.dll
 0002:0000017c       __imp__rand                1001c17c     MSVCRT:MSVCR90.dll
 0002:00000180       __imp__strcmp              1001c180     MSVCRT:MSVCR90.dll
 0002:00000184       __imp__srand               1001c184     MSVCRT:MSVCR90.dll
 0002:00000188       __imp__isdigit             1001c188     MSVCRT:MSVCR90.dll
 0002:0000018c       __imp__cosh                1001c18c     MSVCRT:MSVCR90.dll
 0002:00000190       __imp__acos                1001c190     MSVCRT:MSVCR90.dll
 0002:00000194       __imp____CxxUnregisterExceptionObject 1001c194     MSVCRT:MSVCR90.dll
 0002:00000198       __imp__strftime            1001c198     MSVCRT:MSVCR90.dll
 0002:0000019c       __imp__floor               1001c19c     MSVCRT:MSVCR90.dll
 0002:000001a0       __imp___fileno             1001c1a0     MSVCRT:MSVCR90.dll
 0002:000001a4       __imp__frexp               1001c1a4     MSVCRT:MSVCR90.dll
 0002:000001a8       __imp__log10               1001c1a8     MSVCRT:MSVCR90.dll
 0002:000001ac       __imp__isupper             1001c1ac     MSVCRT:MSVCR90.dll
 0002:000001b0       __imp__atan                1001c1b0     MSVCRT:MSVCR90.dll
 0002:000001b4       __imp__ferror              1001c1b4     MSVCRT:MSVCR90.dll
 0002:000001b8       __imp__iscntrl             1001c1b8     MSVCRT:MSVCR90.dll
 0002:000001bc       __imp__fwrite              1001c1bc     MSVCRT:MSVCR90.dll
 0002:000001c0       __imp__strrchr             1001c1c0     MSVCRT:MSVCR90.dll
 0002:000001c4       __imp__toupper             1001c1c4     MSVCRT:MSVCR90.dll
 0002:000001c8       __imp__ftell               1001c1c8     MSVCRT:MSVCR90.dll
 0002:000001cc       __imp___CxxThrowException@8 1001c1cc     MSVCRT:MSVCR90.dll
 0002:000001d0       __imp__exp                 1001c1d0     MSVCRT:MSVCR90.dll
 0002:000001d4       __imp__freopen             1001c1d4     MSVCRT:MSVCR90.dll
 0002:000001d8       __imp__strcspn             1001c1d8     MSVCRT:MSVCR90.dll
 0002:000001dc       __imp__islower             1001c1dc     MSVCRT:MSVCR90.dll
 0002:000001e0       __imp__realloc             1001c1e0     MSVCRT:MSVCR90.dll
 0002:000001e4       __imp__setlocale           1001c1e4     MSVCRT:MSVCR90.dll
 0002:000001e8       __imp__strtoul             1001c1e8     MSVCRT:MSVCR90.dll
 0002:000001ec       __imp__fseek               1001c1ec     MSVCRT:MSVCR90.dll
 0002:000001f0       __imp__getenv              1001c1f0     MSVCRT:MSVCR90.dll
 0002:000001f4       __imp__strpbrk             1001c1f4     MSVCRT:MSVCR90.dll
 0002:000001f8       __imp__abs                 1001c1f8     MSVCRT:MSVCR90.dll
 0002:000001fc       __imp__fclose              1001c1fc     MSVCRT:MSVCR90.dll
 0002:00000200       __imp__isxdigit            1001c200     MSVCRT:MSVCR90.dll
 0002:00000204       __imp__getc                1001c204     MSVCRT:MSVCR90.dll
 0002:00000208       __imp___difftime64         1001c208     MSVCRT:MSVCR90.dll
 0002:0000020c       __imp__fabs                1001c20c     MSVCRT:MSVCR90.dll
 0002:00000210       __imp____CxxDetectRethrow  1001c210     MSVCRT:MSVCR90.dll
 0002:00000214       __imp____CxxQueryExceptionSize 1001c214     MSVCRT:MSVCR90.dll
 0002:00000218       __imp__clearerr            1001c218     MSVCRT:MSVCR90.dll
 0002:0000021c       __imp__strcat              1001c21c     MSVCRT:MSVCR90.dll
 0002:00000220       __imp__exit                1001c220     MSVCRT:MSVCR90.dll
 0002:00000224       __imp__asin                1001c224     MSVCRT:MSVCR90.dll
 0002:00000228       __imp__sin                 1001c228     MSVCRT:MSVCR90.dll
 0002:0000022c       __imp___cexit              1001c22c     MSVCRT:MSVCR90.dll
 0002:00000230       __imp____FrameUnwindFilter 1001c230     MSVCRT:MSVCR90.dll
 0002:00000234       __imp__free                1001c234     MSVCRT:MSVCR90.dll
 0002:00000238       __imp___malloc_crt         1001c238     MSVCRT:MSVCR90.dll
 0002:0000023c       __imp___encode_pointer     1001c23c     MSVCRT:MSVCR90.dll
 0002:00000240       __imp_??3@YAXPAX@Z         1001c240     MSVCRT:MSVCR90.dll
 0002:00000244       __imp__fflush              1001c244     MSVCRT:MSVCR90.dll
 0002:00000248       __imp___HUGE               1001c248     MSVCRT:MSVCR90.dll
 0002:0000024c       \177MSVCR90_NULL_THUNK_DATA 1001c24c     MSVCRT:MSVCR90.dll
 0002:00000250       __imp___CorDllMain@12      1001c250     MSCOREE:mscoree.dll
 0002:00000254       \177mscoree_NULL_THUNK_DATA 1001c254     MSCOREE:mscoree.dll
 0002:00000258       __imp_?RegisterModuleUninitializer@<CrtImplementationDetails>@@YAXP$AAVEventHandler@System@@@Z 1001c258     MSVCMRT:msvcm90.dll
 0002:0000025c       __imp_?ThrowNestedModuleLoadException@<CrtImplementationDetails>@@YAXP$AAVException@System@@0@Z 1001c25c     MSVCMRT:msvcm90.dll
 0002:00000260       __imp_?DoCallBackInDefaultDomain@<CrtImplementationDetails>@@YAXP6GJPAX@Z0@Z 1001c260     MSVCMRT:msvcm90.dll
 0002:00000264       __imp_?signal@@YAP6MXH@ZHP6MXH@Z@Z 1001c264     MSVCMRT:msvcm90.dll
 0002:00000268       __imp_?ThrowModuleLoadException@<CrtImplementationDetails>@@YAXP$AAVString@System@@@Z 1001c268     MSVCMRT:msvcm90.dll
 0002:0000026c       __imp_?DoDllLanguageSupportValidation@<CrtImplementationDetails>@@YAXXZ 1001c26c     MSVCMRT:msvcm90.dll
 0002:00000270       __imp_?ThrowModuleLoadException@<CrtImplementationDetails>@@YAXP$AAVString@System@@P$AAVException@3@@Z 1001c270     MSVCMRT:msvcm90.dll
 0002:00000274       \177msvcm90_NULL_THUNK_DATA 1001c274     MSVCMRT:msvcm90.dll
 0002:00000278       ___xc_a                    1001c278     MSVCRT:cinitexe.obj
 0002:0000027c       ___xc_z                    1001c27c     MSVCRT:cinitexe.obj
 0002:00000280       ___xi_a                    1001c280     MSVCRT:cinitexe.obj
 0002:00000288       ___xi_z                    1001c288     MSVCRT:cinitexe.obj
 0002:000002e0       ??_7type_info@@6B@         1001c2e0     MSVCRT:ti_inst.obj
 0002:000002e4       __pRawDllMain              1001c2e4     MSVCRT:crtdll.obj
 0002:000002e4       __pDefaultRawDllMain       1001c2e4     MSVCRT:crtdll.obj
 0002:000002e8       ?ProcessDetach@NativeDll@<CrtImplementationDetails>@@0IB 1001c2e8     MSVCRT:tncleanup.obj
 0002:000002ec       ?ProcessAttach@NativeDll@<CrtImplementationDetails>@@0IB 1001c2ec     MSVCRT:tncleanup.obj
 0002:000002f0       ?ThreadAttach@NativeDll@<CrtImplementationDetails>@@0IB 1001c2f0     MSVCRT:tncleanup.obj
 0002:000002f4       ?ThreadDetach@NativeDll@<CrtImplementationDetails>@@0IB 1001c2f4     MSVCRT:tncleanup.obj
 0002:000002f8       ?ProcessVerifier@NativeDll@<CrtImplementationDetails>@@0IB 1001c2f8     MSVCRT:tncleanup.obj
 0002:00000304       __unep@?DoNothing@DefaultDomain@<CrtImplementationDetails>@@$$FCGJPAX@Z 1001c304     MSVCMRT:mstartup.obj
 0002:00000308       __unep@?_UninitializeDefaultDomain@LanguageSupport@<CrtImplementationDetails>@@$$FCGJPAX@Z 1001c308     MSVCMRT:mstartup.obj
 0002:00000354       ??_C@_0N@CBOMBLOK@luaNet_class?$AA@ 1001c354     LuaDLL.obj
 0002:00000364       ??_C@_0BC@PKHODAAB@luaNet_searchbase?$AA@ 1001c364     LuaDLL.obj
 0002:00000378       ??_C@_0BA@DEPJIDAO@luaNet_function?$AA@ 1001c378     LuaDLL.obj
 0002:000014b0       ?luaX_tokens@@3QBQBDB      1001d4b0     luaglue.obj
 0002:00001c68       ?luaO_nilobject_@@3Ulua_TValue@@B 1001dc68     luaglue.obj
 0002:00001dc8       ?luaP_opnames@@3QBQBDB     1001ddc8     luaglue.obj
 0002:00001e64       ?luaP_opmodes@@3QBEB       1001de64     luaglue.obj
 0002:000028b8       ?luaT_typenames@@3QBQBDB   1001e8b8     luaglue.obj
 0002:00002f7c       __unep@?lstop@?A0xd55f0479@@$$FYGXPAUlua_State@@PAUlua_Debug@@@Z 1001ef7c     luaglue.obj
 0002:00002f80       __unep@?f_Ccall@?A0xd55f0479@@$$FYGXPAUlua_State@@PAX@Z 1001ef80     luaglue.obj
 0002:00002f84       __unep@?f_call@?A0xd55f0479@@$$FYGXPAUlua_State@@PAX@Z 1001ef84     luaglue.obj
 0002:00002f88       __unep@?callallgcTM@?A0xd55f0479@@$$FYGXPAUlua_State@@PAX@Z 1001ef88     luaglue.obj
 0002:00002f8c       __unep@?f_luaopen@?A0xd55f0479@@$$FYGXPAUlua_State@@PAX@Z 1001ef8c     luaglue.obj
 0002:00002f90       __unep@?traceback@?A0xd55f0479@@$$FYGHPAUlua_State@@@Z 1001ef90     luaglue.obj
 0002:00002f94       __unep@?panic@?A0xd55f0479@@$$FYGHPAUlua_State@@@Z 1001ef94     luaglue.obj
 0002:00002f98       __unep@?l_alloc@?A0xd55f0479@@$$FYGPAXPAX0II@Z 1001ef98     luaglue.obj
 0002:00002f9c       __unep@?io_pclose@?A0xd55f0479@@$$FYGHPAUlua_State@@@Z 1001ef9c     luaglue.obj
 0002:00002fa0       __unep@?io_noclose@?A0xd55f0479@@$$FYGHPAUlua_State@@@Z 1001efa0     luaglue.obj
 0002:00002fa4       __unep@?io_fclose@?A0xd55f0479@@$$FYGHPAUlua_State@@@Z 1001efa4     luaglue.obj
 0002:00002fa8       __unep@?resume@?A0xd55f0479@@$$FYGXPAUlua_State@@PAX@Z 1001efa8     luaglue.obj
 0002:00002fac       __unep@?hookf@?A0xd55f0479@@$$FYGXPAUlua_State@@PAUlua_Debug@@@Z 1001efac     luaglue.obj
 0002:00002fb0       __unep@?gmatch_aux@?A0xd55f0479@@$$FYGHPAUlua_State@@@Z 1001efb0     luaglue.obj
 0002:00002fb4       __unep@?io_readline@?A0xd55f0479@@$$FYGHPAUlua_State@@@Z 1001efb4     luaglue.obj
 0002:00002fb8       __unep@?luaB_newproxy@?A0xd55f0479@@$$FYGHPAUlua_State@@@Z 1001efb8     luaglue.obj
 0002:00002fbc       __unep@?luaB_next@?A0xd55f0479@@$$FYGHPAUlua_State@@@Z 1001efbc     luaglue.obj
 0002:00002fc0       __unep@?luaB_pairs@?A0xd55f0479@@$$FYGHPAUlua_State@@@Z 1001efc0     luaglue.obj
 0002:00002fc4       __unep@?ipairsaux@?A0xd55f0479@@$$FYGHPAUlua_State@@@Z 1001efc4     luaglue.obj
 0002:00002fc8       __unep@?luaB_ipairs@?A0xd55f0479@@$$FYGHPAUlua_State@@@Z 1001efc8     luaglue.obj
 0002:00002fcc       __unep@?writer@?A0xd55f0479@@$$FYGHPAUlua_State@@PBXIPAX@Z 1001efcc     luaglue.obj
 0002:00002fd0       __unep@?luaB_auxwrap@?A0xd55f0479@@$$FYGHPAUlua_State@@@Z 1001efd0     luaglue.obj
 0002:00002fd4       __unep@?gctm@?A0xd55f0479@@$$FYGHPAUlua_State@@@Z 1001efd4     luaglue.obj
 0002:00002fd8       __unep@?luaY_parser@@$$FYGPAUProto@@PAUlua_State@@PAUZio@@PAUMbuffer@@PBD@Z 1001efd8     luaglue.obj
 0002:00002fdc       __unep@?luaU_undump@@$$FYGPAUProto@@PAUlua_State@@PAUZio@@PAUMbuffer@@PBD@Z 1001efdc     luaglue.obj
 0002:00002fe0       __unep@?f_parser@?A0xd55f0479@@$$FYGXPAUlua_State@@PAX@Z 1001efe0     luaglue.obj
 0002:00002fe4       __unep@?generic_reader@?A0xd55f0479@@$$FYGPBDPAUlua_State@@PAXPAI@Z 1001efe4     luaglue.obj
 0002:00002fe8       __unep@?getS@?A0xd55f0479@@$$FYGPBDPAUlua_State@@PAXPAI@Z 1001efe8     luaglue.obj
 0002:00002fec       __unep@?getF@?A0xd55f0479@@$$FYGPBDPAUlua_State@@PAXPAI@Z 1001efec     luaglue.obj
 0002:00002ff0       __unep@?pmain@?A0xd55f0479@@$$FYGHPAUlua_State@@@Z 1001eff0     luaglue.obj
 0002:00002ff8       __load_config_used         1001eff8     MSVCRT:loadcfg.obj
 0002:00024410       ??_R4type_info@@6B@        10040410     MSVCRT:ti_inst.obj
 0002:00024424       ??_R3type_info@@8          10040424     MSVCRT:ti_inst.obj
 0002:00024434       ??_R2type_info@@8          10040434     MSVCRT:ti_inst.obj
 0002:0002443c       ??_R1A@?0A@EA@type_info@@8 1004043c     MSVCRT:ti_inst.obj
 0002:00024460       ___safe_se_handler_table   10040460     <linker-defined>
 0002:00024464       ___rtc_iaa                 10040464     MSVCRT:_initsect_.obj
 0002:00024468       ___rtc_izz                 10040468     MSVCRT:_initsect_.obj
 0002:0002446c       ___rtc_taa                 1004046c     MSVCRT:_initsect_.obj
 0002:00024470       ___rtc_tzz                 10040470     MSVCRT:_initsect_.obj
 0002:0002451c       __CT??_R0PAUlua_longjmp@@@84 1004051c     luaglue.obj
 0002:00024538       __CT??_R0PAX@84            10040538     luaglue.obj
 0002:00024554       __CTA2PAUlua_longjmp@@     10040554     luaglue.obj
 0002:00024560       __TI2PAUlua_longjmp@@      10040560     luaglue.obj
 0002:00024570       __IMPORT_DESCRIPTOR_MSVCR90 10040570     MSVCRT:MSVCR90.dll
 0002:00024584       __IMPORT_DESCRIPTOR_KERNEL32 10040584     kernel32:KERNEL32.dll
 0002:00024598       __IMPORT_DESCRIPTOR_msvcm90 10040598     MSVCMRT:msvcm90.dll
 0002:000245ac       __IMPORT_DESCRIPTOR_mscoree 100405ac     MSCOREE:mscoree.dll
 0002:000245c0       __NULL_IMPORT_DESCRIPTOR   100405c0     MSVCRT:MSVCR90.dll
 0003:00000000       ??_R0?AVtype_info@@@8      10042000     MSVCRT:ti_inst.obj
 0003:00000018       ___native_dllmain_reason   10042018     MSVCRT:natstart.obj
 0003:0000001c       ___native_vcclrit_reason   1004201c     MSVCRT:natstart.obj
 0003:00000020       ___security_cookie         10042020     MSVCRT:gs_cookie.obj
 0003:00000024       ___security_cookie_complement 10042024     MSVCRT:gs_cookie.obj
 0003:00000028       ?hasPerProcess@DefaultDomain@<CrtImplementationDetails>@@0W4State@TriBool@2@A 10042028     MSVCMRT:mstartup.obj
 0003:0000002c       ?hasNative@DefaultDomain@<CrtImplementationDetails>@@0W4State@TriBool@2@A 1004202c     MSVCMRT:mstartup.obj
 0003:00000030       __mep@?IsInDllMain@NativeDll@<CrtImplementationDetails>@@$$FSA_NXZ 10042030     MSVCMRT:mstartup.obj
 0003:00000034       __mep@?IsInProcessAttach@NativeDll@<CrtImplementationDetails>@@$$FSA_NXZ 10042034     MSVCMRT:mstartup.obj
 0003:00000038       __mep@?IsInProcessDetach@NativeDll@<CrtImplementationDetails>@@$$FSA_NXZ 10042038     MSVCMRT:mstartup.obj
 0003:0000003c       __mep@?IsInVcclrit@NativeDll@<CrtImplementationDetails>@@$$FSA_NXZ 1004203c     MSVCMRT:mstartup.obj
 0003:00000040       __mep@?IsSafeForManagedCode@NativeDll@<CrtImplementationDetails>@@$$FSA_NXZ 10042040     MSVCMRT:mstartup.obj
 0003:00000044       __mep@?DoNothing@DefaultDomain@<CrtImplementationDetails>@@$$FCGJPAX@Z 10042044     MSVCMRT:mstartup.obj
 0003:00000048       __mep@?HasPerProcess@DefaultDomain@<CrtImplementationDetails>@@$$FSA_NXZ 10042048     MSVCMRT:mstartup.obj
 0003:0000004c       __mep@?HasNative@DefaultDomain@<CrtImplementationDetails>@@$$FSA_NXZ 1004204c     MSVCMRT:mstartup.obj
 0003:00000050       __mep@?NeedsInitialization@DefaultDomain@<CrtImplementationDetails>@@$$FSA_NXZ 10042050     MSVCMRT:mstartup.obj
 0003:00000054       __mep@?NeedsUninitialization@DefaultDomain@<CrtImplementationDetails>@@$$FSA_NXZ 10042054     MSVCMRT:mstartup.obj
 0003:00000058       __mep@?Initialize@DefaultDomain@<CrtImplementationDetails>@@$$FSAXXZ 10042058     MSVCMRT:mstartup.obj
 0003:0000005c       __mep@?UninitializeAppDomain@LanguageSupport@<CrtImplementationDetails>@@$$FCAXXZ 1004205c     MSVCMRT:mstartup.obj
 0003:00000060       __mep@?_UninitializeDefaultDomain@LanguageSupport@<CrtImplementationDetails>@@$$FCGJPAX@Z 10042060     MSVCMRT:mstartup.obj
 0003:00000064       __mep@?UninitializeDefaultDomain@LanguageSupport@<CrtImplementationDetails>@@$$FCAXXZ 10042064     MSVCMRT:mstartup.obj
 0003:00000068       __mep@?DomainUnload@LanguageSupport@<CrtImplementationDetails>@@$$FCMXP$AAVObject@System@@P$AAVEventArgs@4@@Z 10042068     MSVCMRT:mstartup.obj
 0003:0000006c       __mep@?Cleanup@LanguageSupport@<CrtImplementationDetails>@@$$FAAMXP$AAVException@System@@@Z 1004206c     MSVCMRT:mstartup.obj
 0003:00000070       __mep@??0?$gcroot@P$AAVString@System@@@@$$FQAE@XZ 10042070     MSVCMRT:mstartup.obj
 0003:00000074       __mep@??1?$gcroot@P$AAVString@System@@@@$$FQAE@XZ 10042074     MSVCMRT:mstartup.obj
 0003:00000078       __mep@??4?$gcroot@P$AAVString@System@@@@$$FQAMAAU0@P$AAVString@System@@@Z 10042078     MSVCMRT:mstartup.obj
 0003:0000007c       __mep@??B?$gcroot@P$AAVString@System@@@@$$FQBMP$AAVString@System@@XZ 1004207c     MSVCMRT:mstartup.obj
 0003:00000080       __mep@?InitializeVtables@LanguageSupport@<CrtImplementationDetails>@@$$FAAEXXZ 10042080     MSVCMRT:mstartup.obj
 0003:00000084       __mep@?InitializeDefaultAppDomain@LanguageSupport@<CrtImplementationDetails>@@$$FAAEXXZ 10042084     MSVCMRT:mstartup.obj
 0003:00000088       __mep@?InitializeNative@LanguageSupport@<CrtImplementationDetails>@@$$FAAEXXZ 10042088     MSVCMRT:mstartup.obj
 0003:0000008c       __mep@?InitializePerProcess@LanguageSupport@<CrtImplementationDetails>@@$$FAAEXXZ 1004208c     MSVCMRT:mstartup.obj
 0003:00000090       __mep@?InitializePerAppDomain@LanguageSupport@<CrtImplementationDetails>@@$$FAAEXXZ 10042090     MSVCMRT:mstartup.obj
 0003:00000094       __mep@?InitializeUninitializer@LanguageSupport@<CrtImplementationDetails>@@$$FAAEXXZ 10042094     MSVCMRT:mstartup.obj
 0003:00000098       __mep@?_Initialize@LanguageSupport@<CrtImplementationDetails>@@$$FAAEXXZ 10042098     MSVCMRT:mstartup.obj
 0003:0000009c       __mep@?Initialize@LanguageSupport@<CrtImplementationDetails>@@$$FQAEXXZ 1004209c     MSVCMRT:mstartup.obj
 0003:000000a0       __mep@??0LanguageSupport@<CrtImplementationDetails>@@$$FQAE@XZ 100420a0     MSVCMRT:mstartup.obj
 0003:000000a4       __mep@??1LanguageSupport@<CrtImplementationDetails>@@$$FQAE@XZ 100420a4     MSVCMRT:mstartup.obj
 0003:000000a8       __mep@?.cctor@@$$FYMXXZ    100420a8     MSVCMRT:mstartup.obj
 0003:000000ac       __mep@???__E?Initialized@CurrentDomain@<CrtImplementationDetails>@@$$Q2HA@@YMXXZ@?A0x250abb45@@$$FYMXXZ 100420ac     MSVCMRT:mstartup.obj
 0003:000000b0       __mep@???__E?Uninitialized@CurrentDomain@<CrtImplementationDetails>@@$$Q2HA@@YMXXZ@?A0x250abb45@@$$FYMXXZ 100420b0     MSVCMRT:mstartup.obj
 0003:000000b4       __mep@???__E?IsDefaultDomain@CurrentDomain@<CrtImplementationDetails>@@$$Q2_NA@@YMXXZ@?A0x250abb45@@$$FYMXXZ 100420b4     MSVCMRT:mstartup.obj
 0003:000000b8       __mep@???__E?InitializedVtables@CurrentDomain@<CrtImplementationDetails>@@$$Q2W4State@Progress@2@A@@YMXXZ@?A0x250abb45@@$$FYMXXZ 100420b8     MSVCMRT:mstartup.obj
 0003:000000bc       __mep@???__E?InitializedNative@CurrentDomain@<CrtImplementationDetails>@@$$Q2W4State@Progress@2@A@@YMXXZ@?A0x250abb45@@$$FYMXXZ 100420bc     MSVCMRT:mstartup.obj
 0003:000000c0       __mep@???__E?InitializedPerProcess@CurrentDomain@<CrtImplementationDetails>@@$$Q2W4State@Progress@2@A@@YMXXZ@?A0x250abb45@@$$FYMXXZ 100420c0     MSVCMRT:mstartup.obj
 0003:000000c4       __mep@???__E?InitializedPerAppDomain@CurrentDomain@<CrtImplementationDetails>@@$$Q2W4State@Progress@2@A@@YMXXZ@?A0x250abb45@@$$FYMXXZ 100420c4     MSVCMRT:mstartup.obj
 0003:000000c8       __mep@?_handle@AtExitLock@<CrtImplementationDetails>@@$$FCMP$AAVGCHandle@InteropServices@Runtime@System@@XZ 100420c8     MSVCMRT:msilexit.obj
 0003:000000cc       __mep@?_lock_Set@AtExitLock@<CrtImplementationDetails>@@$$FCMXP$AAVObject@System@@@Z 100420cc     MSVCMRT:msilexit.obj
 0003:000000d0       __mep@?_lock_Get@AtExitLock@<CrtImplementationDetails>@@$$FCMP$AAVObject@System@@XZ 100420d0     MSVCMRT:msilexit.obj
 0003:000000d4       __mep@?_lock_Destruct@AtExitLock@<CrtImplementationDetails>@@$$FCAXXZ 100420d4     MSVCMRT:msilexit.obj
 0003:000000d8       __mep@?IsInitialized@AtExitLock@<CrtImplementationDetails>@@$$FSA_NXZ 100420d8     MSVCMRT:msilexit.obj
 0003:000000dc       __mep@?RemoveRef@AtExitLock@<CrtImplementationDetails>@@$$FSAXXZ 100420dc     MSVCMRT:msilexit.obj
 0003:000000e0       __mep@?Enter@AtExitLock@<CrtImplementationDetails>@@$$FSAXXZ 100420e0     MSVCMRT:msilexit.obj
 0003:000000e4       __mep@?Exit@AtExitLock@<CrtImplementationDetails>@@$$FSAXXZ 100420e4     MSVCMRT:msilexit.obj
 0003:000000e8       __mep@?__global_lock@?A0x11773762@@$$FYA_NXZ 100420e8     MSVCMRT:msilexit.obj
 0003:000000ec       __mep@?__global_unlock@?A0x11773762@@$$FYA_NXZ 100420ec     MSVCMRT:msilexit.obj
 0003:000000f0       __mep@?__dealloc_global_lock@?A0x11773762@@$$FYAXXZ 100420f0     MSVCMRT:msilexit.obj
 0003:000000f4       __mep@?_atexit_helper@@$$J0YMHP6MXXZPAIPAPAP6MXXZ2@Z 100420f4     MSVCMRT:msilexit.obj
 0003:000000f8       __mep@?_exit_callback@@$$J0YMXXZ 100420f8     MSVCMRT:msilexit.obj
 0003:000000fc       __mep@?_atexit_m@@$$J0YMHP6MXXZ@Z 100420fc     MSVCMRT:msilexit.obj
 0003:00000100       __mep@?_app_exit_callback@@$$J0YMXXZ 10042100     MSVCMRT:msilexit.obj
 0003:00000104       __mep@?_atexit_m_appdomain@@$$J0YMHP6MXXZ@Z 10042104     MSVCMRT:msilexit.obj
 0003:00000108       __mep@?_lock_Construct@AtExitLock@<CrtImplementationDetails>@@$$FCMXP$AAVObject@System@@@Z 10042108     MSVCMRT:msilexit.obj
 0003:0000010c       __mep@?AddRef@AtExitLock@<CrtImplementationDetails>@@$$FSAXXZ 1004210c     MSVCMRT:msilexit.obj
 0003:00000110       __mep@?__alloc_global_lock@?A0x11773762@@$$FYA_NXZ 10042110     MSVCMRT:msilexit.obj
 0003:00000114       __mep@?_initatexit_m@@$$J0YMHXZ 10042114     MSVCMRT:msilexit.obj
 0003:00000118       __mep@?_onexit_m@@$$J0YMP6MHXZP6MHXZ@Z 10042118     MSVCMRT:msilexit.obj
 0003:0000011c       __mep@?_initatexit_app_domain@@$$J0YMHXZ 1004211c     MSVCMRT:msilexit.obj
 0003:00000120       __mep@?_onexit_m_appdomain@@$$J0YMP6MHXZP6MHXZ@Z 10042120     MSVCMRT:msilexit.obj
 0003:00000124       __mep@?_initterm_e@@$$FYMHPAP6AHXZ0@Z 10042124     MSVCMRT:puremsilcode.obj
 0003:00000128       __mep@?_initterm@@$$FYMXPAP6AXXZ0@Z 10042128     MSVCMRT:puremsilcode.obj
 0003:0000012c       __mep@?Handle@ThisModule@<CrtImplementationDetails>@@$$FCM?AVModuleHandle@System@@XZ 1004212c     MSVCMRT:puremsilcode.obj
 0003:00000130       __mep@??$ResolveMethod@$$A6MPBXXZ@ThisModule@<CrtImplementationDetails>@@$$FSMP6MPBXXZP6MPBXXZ@Z 10042130     MSVCMRT:puremsilcode.obj
 0003:00000134       __mep@?_initterm_m@@$$FYMXPBQ6MPBXXZ0@Z 10042134     MSVCMRT:puremsilcode.obj
 0003:00000138       __mep@?___CxxCallUnwindDtor@@$$J0YMXP6MXPAX@Z0@Z 10042138     MSVCMRT:managdeh.obj
 0003:0000013c       __mep@?___CxxCallUnwindDelDtor@@$$J0YMXP6MXPAX@Z0@Z 1004213c     MSVCMRT:managdeh.obj
 0003:00000140       __mep@?___CxxCallUnwindVecDtor@@$$J0YMXP6MXPAXIHP6MX0@Z@Z0IH1@Z 10042140     MSVCMRT:managdeh.obj
 0003:00000144       ??_R0PAUlua_longjmp@@@8    10042144     luaglue.obj
 0003:00000160       ??_R0PAX@8                 10042160     luaglue.obj
 0003:00000188       __mep@?luaZ_init@@$$FYGXPAUlua_State@@PAUZio@@P6GPBD0PAXPAI@Z2@Z 10042188     luaglue.obj
 0003:0000018c       __mep@?luaZ_fill@@$$FYGHPAUZio@@@Z 1004218c     luaglue.obj
 0003:00000190       __mep@?l_strcmp@?A0xd55f0479@@$$FYGHPBTTString@@0@Z 10042190     luaglue.obj
 0003:00000194       __mep@?luaU_header@@$$FYGXPAD@Z 10042194     luaglue.obj
 0003:00000198       __mep@?collectargs@?A0xd55f0479@@$$FYGHPAPADPAH11@Z 10042198     luaglue.obj
 0003:0000019c       __mep@?l_message@?A0xd55f0479@@$$FYGXPBD0@Z 1004219c     luaglue.obj
 0003:000001a0       __mep@?print_usage@?A0xd55f0479@@$$FYGXXZ 100421a0     luaglue.obj
 0003:000001a4       __mep@?luaH_set@@$$FYGPAUlua_TValue@@PAUlua_State@@PAUTable@@PBU1@@Z 100421a4     luaglue.obj
 0003:000001a8       __mep@?luaH_getstr@@$$FYGPBUlua_TValue@@PAUTable@@PATTString@@@Z 100421a8     luaglue.obj
 0003:000001ac       __mep@?getfreepos@?A0xd55f0479@@$$FYGPAUNode@@PAUTable@@@Z 100421ac     luaglue.obj
 0003:000001b0       __mep@?numusearray@?A0xd55f0479@@$$FYGHPBUTable@@PAH@Z 100421b0     luaglue.obj
 0003:000001b4       __mep@?computesizes@?A0xd55f0479@@$$FYGHQAHPAH@Z 100421b4     luaglue.obj
 0003:000001b8       __mep@?hashnum@?A0xd55f0479@@$$FYGPAUNode@@PBUTable@@N@Z 100421b8     luaglue.obj
 0003:000001bc       __mep@?addintlen@?A0xd55f0479@@$$FYGXPAD@Z 100421bc     luaglue.obj
 0003:000001c0       __mep@?scanformat@?A0xd55f0479@@$$FYGPBDPAUlua_State@@PBDPAD@Z 100421c0     luaglue.obj
 0003:000001c4       __mep@?gfind_nodef@?A0xd55f0479@@$$FYGHPAUlua_State@@@Z 100421c4     luaglue.obj
 0003:000001c8       __mep@?lmemfind@?A0xd55f0479@@$$FYGPBDPBDI0I@Z 100421c8     luaglue.obj
 0003:000001cc       __mep@?start_capture@?A0xd55f0479@@$$FYGPBDPAUMatchState@@PBD1H@Z 100421cc     luaglue.obj
 0003:000001d0       __mep@?matchbalance@?A0xd55f0479@@$$FYGPBDPAUMatchState@@PBD1@Z 100421d0     luaglue.obj
 0003:000001d4       __mep@?match_class@?A0xd55f0479@@$$FYGHHH@Z 100421d4     luaglue.obj
 0003:000001d8       __mep@?classend@?A0xd55f0479@@$$FYGPBDPAUMatchState@@PBD@Z 100421d8     luaglue.obj
 0003:000001dc       __mep@?capture_to_close@?A0xd55f0479@@$$FYGHPAUMatchState@@@Z 100421dc     luaglue.obj
 0003:000001e0       __mep@?check_capture@?A0xd55f0479@@$$FYGHPAUMatchState@@H@Z 100421e0     luaglue.obj
 0003:000001e4       __mep@?posrelat@?A0xd55f0479@@$$FYGHHI@Z 100421e4     luaglue.obj
 0003:000001e8       __mep@?preinit_state@?A0xd55f0479@@$$FYGXPAUlua_State@@PAUglobal_State@@@Z 100421e8     luaglue.obj
 0003:000001ec       __mep@?block_follow@?A0xd55f0479@@$$FYGHH@Z 100421ec     luaglue.obj
 0003:000001f0       __mep@?getbinopr@?A0xd55f0479@@$$FYG?AW4BinOpr@@H@Z 100421f0     luaglue.obj
 0003:000001f4       __mep@?getunopr@?A0xd55f0479@@$$FYG?AW4UnOpr@@H@Z 100421f4     luaglue.obj
 0003:000001f8       __mep@?enterblock@?A0xd55f0479@@$$FYGXPAUFuncState@@PAUBlockCnt@@E@Z 100421f8     luaglue.obj
 0003:000001fc       __mep@?markupval@?A0xd55f0479@@$$FYGXPAUFuncState@@H@Z 100421fc     luaglue.obj
 0003:00000200       __mep@?searchvar@?A0xd55f0479@@$$FYGHPAUFuncState@@PATTString@@@Z 10042200     luaglue.obj
 0003:00000204       __mep@?removevars@?A0xd55f0479@@$$FYGXPAULexState@@H@Z 10042204     luaglue.obj
 0003:00000208       __mep@?adjustlocalvars@?A0xd55f0479@@$$FYGXPAULexState@@H@Z 10042208     luaglue.obj
 0003:0000020c       __mep@?init_exp@?A0xd55f0479@@$$FYGXPAUexpdesc@@W4expkind@@H@Z 1004220c     luaglue.obj
 0003:00000210       __mep@?time@?A0xd55f0479@@$$J0YA_JPA_J@Z 10042210     luaglue.obj
 0003:00000214       __mep@?mktime@?A0xd55f0479@@$$J0YA_JPAUtm@@@Z 10042214     luaglue.obj
 0003:00000218       __mep@?localtime@?A0xd55f0479@@$$J0YAPAUtm@@PB_J@Z 10042218     luaglue.obj
 0003:0000021c       __mep@?gmtime@?A0xd55f0479@@$$J0YAPAUtm@@PB_J@Z 1004221c     luaglue.obj
 0003:00000220       __mep@?difftime@?A0xd55f0479@@$$J0YAN_J0@Z 10042220     luaglue.obj
 0003:00000224       __mep@?luaO_chunkid@@$$FYGXPADPBDI@Z 10042224     luaglue.obj
 0003:00000228       __mep@?luaO_str2d@@$$FYGHPBDPAN@Z 10042228     luaglue.obj
 0003:0000022c       __mep@?luaO_rawequalObj@@$$FYGHPBUlua_TValue@@0@Z 1004222c     luaglue.obj
 0003:00000230       __mep@?luaO_log2@@$$FYGHI@Z 10042230     luaglue.obj
 0003:00000234       __mep@?luaO_fb2int@@$$FYGHH@Z 10042234     luaglue.obj
 0003:00000238       __mep@?luaO_int2fb@@$$FYGHI@Z 10042238     luaglue.obj
 0003:0000023c       __mep@?readable@?A0xd55f0479@@$$FYGHPBD@Z 1004223c     luaglue.obj
 0003:00000240       __mep@?ll_unloadlib@?A0xd55f0479@@$$FYGXPAX@Z 10042240     luaglue.obj
 0003:00000244       __mep@?luaM_toobig@@$$FYGPAXPAUlua_State@@@Z 10042244     luaglue.obj
 0003:00000248       __mep@?buffreplace@?A0xd55f0479@@$$FYGXPAULexState@@DD@Z 10042248     luaglue.obj
 0003:0000024c       __mep@?luaX_token2str@@$$FYGPBDPAULexState@@H@Z 1004224c     luaglue.obj
 0003:00000250       __mep@?luaC_link@@$$FYGXPAUlua_State@@PATGCObject@@E@Z 10042250     luaglue.obj
 0003:00000254       __mep@?luaC_barrierback@@$$FYGXPAUlua_State@@PAUTable@@@Z 10042254     luaglue.obj
 0003:00000258       __mep@?iscleared@?A0xd55f0479@@$$FYGHPBUlua_TValue@@H@Z 10042258     luaglue.obj
 0003:0000025c       __mep@?reallymarkobject@?A0xd55f0479@@$$FYGXPAUglobal_State@@PATGCObject@@@Z 1004225c     luaglue.obj
 0003:00000260       __mep@?removeentry@?A0xd55f0479@@$$FYGXPAUNode@@@Z 10042260     luaglue.obj
 0003:00000264       __mep@?luaF_getlocalname@@$$FYGPBDPBUProto@@HH@Z 10042264     luaglue.obj
 0003:00000268       __mep@?unlinkupval@?A0xd55f0479@@$$FYGXPAUUpVal@@@Z 10042268     luaglue.obj
 0003:0000026c       __mep@?DumpBlock@?A0xd55f0479@@$$FYGXPBXIPAUDumpState@@@Z 1004226c     luaglue.obj
 0003:00000270       __mep@?lua_yield@@$$FYGHPAUlua_State@@H@Z 10042270     luaglue.obj
 0003:00000274       __mep@?luaD_reallocCI@@$$FYGXPAUlua_State@@H@Z 10042274     luaglue.obj
 0003:00000278       __mep@?correctstack@?A0xd55f0479@@$$FYGXPAUlua_State@@PAUlua_TValue@@@Z 10042278     luaglue.obj
 0003:0000027c       __mep@?luaD_rawrunprotected@@$$FYGHPAUlua_State@@P6GX0PAX@Z1@Z 1004227c     luaglue.obj
 0003:00000280       __mep@?restore_stack_limit@?A0xd55f0479@@$$FYGXPAUlua_State@@@Z 10042280     luaglue.obj
 0003:00000284       __mep@?luaG_ordererror@@$$FYGHPAUlua_State@@PBUlua_TValue@@1@Z 10042284     luaglue.obj
 0003:00000288       __mep@?isinstack@?A0xd55f0479@@$$FYGHPAUCallInfo@@PBUlua_TValue@@@Z 10042288     luaglue.obj
 0003:0000028c       __mep@?kname@?A0xd55f0479@@$$FYGPBDPAUProto@@H@Z 1004228c     luaglue.obj
 0003:00000290       __mep@?checkArgMode@?A0xd55f0479@@$$FYGHPBUProto@@HW4OpArgMask@@@Z 10042290     luaglue.obj
 0003:00000294       __mep@?luaG_checkopenop@@$$FYGHI@Z 10042294     luaglue.obj
 0003:00000298       __mep@?precheck@?A0xd55f0479@@$$FYGHPBUProto@@@Z 10042298     luaglue.obj
 0003:0000029c       __mep@?info_tailcall@?A0xd55f0479@@$$FYGXPAUlua_Debug@@@Z 1004229c     luaglue.obj
 0003:000002a0       __mep@?funcinfo@?A0xd55f0479@@$$FYGXPAUlua_Debug@@PATClosure@@@Z 100422a0     luaglue.obj
 0003:000002a4       __mep@?getluaproto@?A0xd55f0479@@$$FYGPAUProto@@PAUCallInfo@@@Z 100422a4     luaglue.obj
 0003:000002a8       __mep@?lua_getstack@@$$FYGHPAUlua_State@@HPAUlua_Debug@@@Z 100422a8     luaglue.obj
 0003:000002ac       __mep@?lua_gethookcount@@$$FYGHPAUlua_State@@@Z 100422ac     luaglue.obj
 0003:000002b0       __mep@?lua_gethookmask@@$$FYGHPAUlua_State@@@Z 100422b0     luaglue.obj
 0003:000002b4       __mep@?lua_gethook@@$$FYGP6GXPAUlua_State@@PAUlua_Debug@@@Z0@Z 100422b4     luaglue.obj
 0003:000002b8       __mep@?lua_sethook@@$$FYGHPAUlua_State@@P6GX0PAUlua_Debug@@@ZHH@Z 100422b8     luaglue.obj
 0003:000002bc       __mep@?currentpc@?A0xd55f0479@@$$FYGHPAUlua_State@@PAUCallInfo@@@Z 100422bc     luaglue.obj
 0003:000002c0       __mep@?unmakemask@?A0xd55f0479@@$$FYGPADHPAD@Z 100422c0     luaglue.obj
 0003:000002c4       __mep@?makemask@?A0xd55f0479@@$$FYGHPBDH@Z 100422c4     luaglue.obj
 0003:000002c8       __mep@?luaK_fixline@@$$FYGXPAUFuncState@@H@Z 100422c8     luaglue.obj
 0003:000002cc       __mep@?luaK_setoneret@@$$FYGXPAUFuncState@@PAUexpdesc@@@Z 100422cc     luaglue.obj
 0003:000002d0       __mep@?freereg@?A0xd55f0479@@$$FYGXPAUFuncState@@H@Z 100422d0     luaglue.obj
 0003:000002d4       __mep@?getjumpcontrol@?A0xd55f0479@@$$FYGPAIPAUFuncState@@H@Z 100422d4     luaglue.obj
 0003:000002d8       __mep@?getjump@?A0xd55f0479@@$$FYGHPAUFuncState@@H@Z 100422d8     luaglue.obj
 0003:000002dc       __mep@?luaK_getlabel@@$$FYGHPAUFuncState@@@Z 100422dc     luaglue.obj
 0003:000002e0       __mep@?isnumeral@?A0xd55f0479@@$$FYGHPAUexpdesc@@@Z 100422e0     luaglue.obj
 0003:000002e4       __mep@?l_alloc@?A0xd55f0479@@$$FYGPAXPAX0II@Z 100422e4     luaglue.obj
 0003:000002e8       __mep@?getS@?A0xd55f0479@@$$FYGPBDPAUlua_State@@PAXPAI@Z 100422e8     luaglue.obj
 0003:000002ec       __mep@?getF@?A0xd55f0479@@$$FYGPBDPAUlua_State@@PAXPAI@Z 100422ec     luaglue.obj
 0003:000002f0       __mep@?luaL_buffinit@@$$FYGXPAUlua_State@@PAUluaL_Buffer@@@Z 100422f0     luaglue.obj
 0003:000002f4       __mep@?libsize@?A0xd55f0479@@$$FYGHPBUluaL_Reg@@@Z 100422f4     luaglue.obj
 0003:000002f8       __mep@?aux_upvalue@?A0xd55f0479@@$$FYGPBDPAUlua_TValue@@HPAPAU2@@Z 100422f8     luaglue.obj
 0003:000002fc       __mep@?lua_setallocf@@$$FYGXPAUlua_State@@P6GPAXPAX1II@Z1@Z 100422fc     luaglue.obj
 0003:00000300       __mep@?lua_getallocf@@$$FYGP6GPAXPAX0II@ZPAUlua_State@@PAPAX@Z 10042300     luaglue.obj
 0003:00000304       __mep@?lua_status@@$$FYGHPAUlua_State@@@Z 10042304     luaglue.obj
 0003:00000308       __mep@?lua_pushthread@@$$FYGHPAUlua_State@@@Z 10042308     luaglue.obj
 0003:0000030c       __mep@?lua_pushlightuserdata@@$$FYGXPAUlua_State@@PAX@Z 1004230c     luaglue.obj
 0003:00000310       __mep@?lua_pushboolean@@$$FYGXPAUlua_State@@H@Z 10042310     luaglue.obj
 0003:00000314       __mep@?lua_pushinteger@@$$FYGXPAUlua_State@@H@Z 10042314     luaglue.obj
 0003:00000318       __mep@?lua_pushnumber@@$$FYGXPAUlua_State@@N@Z 10042318     luaglue.obj
 0003:0000031c       __mep@?lua_pushnil@@$$FYGXPAUlua_State@@@Z 1004231c     luaglue.obj
 0003:00000320       __mep@?lua_typename@@$$FYGPBDPAUlua_State@@H@Z 10042320     luaglue.obj
 0003:00000324       __mep@?lua_settop@@$$FYGXPAUlua_State@@H@Z 10042324     luaglue.obj
 0003:00000328       __mep@?lua_gettop@@$$FYGHPAUlua_State@@@Z 10042328     luaglue.obj
 0003:0000032c       __mep@?lua_atpanic@@$$FYGP6GHPAUlua_State@@@Z0P6GH0@Z@Z 1004232c     luaglue.obj
 0003:00000330       __mep@?lua_setlevel@@$$FYGXPAUlua_State@@0@Z 10042330     luaglue.obj
 0003:00000334       __mep@?lua_xmove@@$$FYGXPAUlua_State@@0H@Z 10042334     luaglue.obj
 0003:00000338       __mep@?luaA_pushobject@@$$FYGXPAUlua_State@@PBUlua_TValue@@@Z 10042338     luaglue.obj
 0003:0000033c       __mep@?getcurrenv@?A0xd55f0479@@$$FYGPAUTable@@PAUlua_State@@@Z 1004233c     luaglue.obj
 0003:00000340       __mep@?index2adr@?A0xd55f0479@@$$FYGPAUlua_TValue@@PAUlua_State@@H@Z 10042340     luaglue.obj
 0003:00000344       __mep@?strrchr@@$$FYAPADPADH@Z 10042344     luaglue.obj
 0003:00000348       __mep@?strchr@@$$FYAPADPADH@Z 10042348     luaglue.obj
 0003:0000034c       __mep@?time@?A0x9d2b4c3f@@$$J0YA_JPA_J@Z 1004234c     LuaDLL.obj
 0003:00000350       __mep@?localtime@?A0x9d2b4c3f@@$$J0YAPAUtm@@PB_J@Z 10042350     LuaDLL.obj
 0003:00000354       __mep@?luaZ_lookahead@@$$FYGHPAUZio@@@Z 10042354     luaglue.obj
 0003:00000358       __mep@?luaV_tonumber@@$$FYGPBUlua_TValue@@PBU1@PAU1@@Z 10042358     luaglue.obj
 0003:0000035c       __mep@?print_version@?A0xd55f0479@@$$FYGXXZ 1004235c     luaglue.obj
 0003:00000360       __mep@?lstop@?A0xd55f0479@@$$FYGXPAUlua_State@@PAUlua_Debug@@@Z 10042360     luaglue.obj
 0003:00000364       __mep@?luaT_gettmbyobj@@$$FYGPBUlua_TValue@@PAUlua_State@@PBU1@W4TMS@@@Z 10042364     luaglue.obj
 0003:00000368       __mep@?luaT_gettm@@$$FYGPBUlua_TValue@@PAUTable@@W4TMS@@PATTString@@@Z 10042368     luaglue.obj
 0003:0000036c       __mep@?luaH_getnum@@$$FYGPBUlua_TValue@@PAUTable@@H@Z 1004236c     luaglue.obj
 0003:00000370       __mep@?countint@?A0xd55f0479@@$$FYGHPBUlua_TValue@@PAH@Z 10042370     luaglue.obj
 0003:00000374       __mep@?mainposition@?A0xd55f0479@@$$FYGPAUNode@@PBUTable@@PBUlua_TValue@@@Z 10042374     luaglue.obj
 0003:00000378       __mep@?match_capture@?A0xd55f0479@@$$FYGPBDPAUMatchState@@PBDH@Z 10042378     luaglue.obj
 0003:0000037c       __mep@?end_capture@?A0xd55f0479@@$$FYGPBDPAUMatchState@@PBD1@Z 1004237c     luaglue.obj
 0003:00000380       __mep@?matchbracketclass@?A0xd55f0479@@$$FYGHHPBD0@Z 10042380     luaglue.obj
 0003:00000384       __mep@?luaS_resize@@$$FYGXPAUlua_State@@H@Z 10042384     luaglue.obj
 0003:00000388       __mep@?os_clock@?A0xd55f0479@@$$FYGHPAUlua_State@@@Z 10042388     luaglue.obj
 0003:0000038c       __mep@?os_pushresult@?A0xd55f0479@@$$FYGHPAUlua_State@@HPBD@Z 1004238c     luaglue.obj
 0003:00000390       __mep@?read_number@?A0xd55f0479@@$$FYGHPAUlua_State@@PAU_iobuf@@@Z 10042390     luaglue.obj
 0003:00000394       __mep@?pushresult@?A0xd55f0479@@$$FYGHPAUlua_State@@HPBD@Z 10042394     luaglue.obj
 0003:00000398       __mep@?luaC_barrierf@@$$FYGXPAUlua_State@@PATGCObject@@1@Z 10042398     luaglue.obj
 0003:0000039c       __mep@?remarkupvals@?A0xd55f0479@@$$FYGXPAUglobal_State@@@Z 1004239c     luaglue.obj
 0003:000003a0       __mep@?markmt@?A0xd55f0479@@$$FYGXPAUglobal_State@@@Z 100423a0     luaglue.obj
 0003:000003a4       __mep@?cleartable@?A0xd55f0479@@$$FYGXPATGCObject@@@Z 100423a4     luaglue.obj
 0003:000003a8       __mep@?traverseclosure@?A0xd55f0479@@$$FYGXPAUglobal_State@@PATClosure@@@Z 100423a8     luaglue.obj
 0003:000003ac       __mep@?traverseproto@?A0xd55f0479@@$$FYGXPAUglobal_State@@PAUProto@@@Z 100423ac     luaglue.obj
 0003:000003b0       __mep@?traversetable@?A0xd55f0479@@$$FYGHPAUglobal_State@@PAUTable@@@Z 100423b0     luaglue.obj
 0003:000003b4       __mep@?luaC_separateudata@@$$FYGIPAUlua_State@@H@Z 100423b4     luaglue.obj
 0003:000003b8       __mep@?marktmu@?A0xd55f0479@@$$FYGXPAUglobal_State@@@Z 100423b8     luaglue.obj
 0003:000003bc       __mep@?luaF_freeupval@@$$FYGXPAUlua_State@@PAUUpVal@@@Z 100423bc     luaglue.obj
 0003:000003c0       __mep@?DumpHeader@?A0xd55f0479@@$$FYGXPAUDumpState@@@Z 100423c0     luaglue.obj
 0003:000003c4       __mep@?DumpString@?A0xd55f0479@@$$FYGXPBTTString@@PAUDumpState@@@Z 100423c4     luaglue.obj
 0003:000003c8       __mep@?DumpNumber@?A0xd55f0479@@$$FYGXNPAUDumpState@@@Z 100423c8     luaglue.obj
 0003:000003cc       __mep@?DumpInt@?A0xd55f0479@@$$FYGXHPAUDumpState@@@Z 100423cc     luaglue.obj
 0003:000003d0       __mep@?DumpChar@?A0xd55f0479@@$$FYGXHPAUDumpState@@@Z 100423d0     luaglue.obj
 0003:000003d4       __mep@?symbexec@?A0xd55f0479@@$$FYGIPBUProto@@HH@Z 100423d4     luaglue.obj
 0003:000003d8       __mep@?findlocal@?A0xd55f0479@@$$FYGPBDPAUlua_State@@PAUCallInfo@@H@Z 100423d8     luaglue.obj
 0003:000003dc       __mep@?currentline@?A0xd55f0479@@$$FYGHPAUlua_State@@PAUCallInfo@@@Z 100423dc     luaglue.obj
 0003:000003e0       __mep@?constfolding@?A0xd55f0479@@$$FYGHW4OpCode@@PAUexpdesc@@1@Z 100423e0     luaglue.obj
 0003:000003e4       __mep@?invertjump@?A0xd55f0479@@$$FYGXPAUFuncState@@PAUexpdesc@@@Z 100423e4     luaglue.obj
 0003:000003e8       __mep@?freeexp@?A0xd55f0479@@$$FYGXPAUFuncState@@PAUexpdesc@@@Z 100423e8     luaglue.obj
 0003:000003ec       __mep@?patchtestreg@?A0xd55f0479@@$$FYGHPAUFuncState@@HH@Z 100423ec     luaglue.obj
 0003:000003f0       __mep@?need_value@?A0xd55f0479@@$$FYGHPAUFuncState@@H@Z 100423f0     luaglue.obj
 0003:000003f4       __mep@?luaB_corunning@?A0xd55f0479@@$$FYGHPAUlua_State@@@Z 100423f4     luaglue.obj
 0003:000003f8       __mep@?luaB_yield@?A0xd55f0479@@$$FYGHPAUlua_State@@@Z 100423f8     luaglue.obj
 0003:000003fc       __mep@?costatus@?A0xd55f0479@@$$FYGHPAUlua_State@@0@Z 100423fc     luaglue.obj
 0003:00000400       __mep@?lua_setupvalue@@$$FYGPBDPAUlua_State@@HH@Z 10042400     luaglue.obj
 0003:00000404       __mep@?lua_getupvalue@@$$FYGPBDPAUlua_State@@HH@Z 10042404     luaglue.obj
 0003:00000408       __mep@?lua_setfenv@@$$FYGHPAUlua_State@@H@Z 10042408     luaglue.obj
 0003:0000040c       __mep@?lua_setmetatable@@$$FYGHPAUlua_State@@H@Z 1004240c     luaglue.obj
 0003:00000410       __mep@?lua_rawset@@$$FYGXPAUlua_State@@H@Z 10042410     luaglue.obj
 0003:00000414       __mep@?lua_getfenv@@$$FYGXPAUlua_State@@H@Z 10042414     luaglue.obj
 0003:00000418       __mep@?lua_getmetatable@@$$FYGHPAUlua_State@@H@Z 10042418     luaglue.obj
 0003:0000041c       __mep@?lua_rawgeti@@$$FYGXPAUlua_State@@HH@Z 1004241c     luaglue.obj
 0003:00000420       __mep@?lua_rawget@@$$FYGXPAUlua_State@@H@Z 10042420     luaglue.obj
 0003:00000424       __mep@?lua_tothread@@$$FYGPAUlua_State@@PAU1@H@Z 10042424     luaglue.obj
 0003:00000428       __mep@?lua_touserdata@@$$FYGPAXPAUlua_State@@H@Z 10042428     luaglue.obj
 0003:0000042c       __mep@?lua_tocfunction@@$$FYGP6GHPAUlua_State@@@Z0H@Z 1004242c     luaglue.obj
 0003:00000430       __mep@?lua_toboolean@@$$FYGHPAUlua_State@@H@Z 10042430     luaglue.obj
 0003:00000434       __mep@?lua_tonumber@@$$FYGNPAUlua_State@@H@Z 10042434     luaglue.obj
 0003:00000438       __mep@?lua_rawequal@@$$FYGHPAUlua_State@@HH@Z 10042438     luaglue.obj
 0003:0000043c       __mep@?lua_isuserdata@@$$FYGHPAUlua_State@@H@Z 1004243c     luaglue.obj
 0003:00000440       __mep@?lua_isnumber@@$$FYGHPAUlua_State@@H@Z 10042440     luaglue.obj
 0003:00000444       __mep@?lua_iscfunction@@$$FYGHPAUlua_State@@H@Z 10042444     luaglue.obj
 0003:00000448       __mep@?lua_type@@$$FYGHPAUlua_State@@H@Z 10042448     luaglue.obj
 0003:0000044c       __mep@?lua_pushvalue@@$$FYGXPAUlua_State@@H@Z 1004244c     luaglue.obj
 0003:00000450       __mep@?lua_replace@@$$FYGXPAUlua_State@@H@Z 10042450     luaglue.obj
 0003:00000454       __mep@?lua_insert@@$$FYGXPAUlua_State@@H@Z 10042454     luaglue.obj
 0003:00000458       __mep@?lua_remove@@$$FYGXPAUlua_State@@H@Z 10042458     luaglue.obj
 0003:0000045c       __mep@?luaZ_read@@$$FYGIPAUZio@@PAXI@Z 1004245c     luaglue.obj
 0003:00000460       __mep@?get_compTM@?A0xd55f0479@@$$FYGPBUlua_TValue@@PAUlua_State@@PAUTable@@1W4TMS@@@Z 10042460     luaglue.obj
 0003:00000464       __mep@?laction@?A0xd55f0479@@$$FYGXH@Z 10042464     luaglue.obj
 0003:00000468       __mep@?unbound_search@?A0xd55f0479@@$$FYGHPAUTable@@I@Z 10042468     luaglue.obj
 0003:0000046c       __mep@?numusehash@?A0xd55f0479@@$$FYGHPBUTable@@PAH1@Z 1004246c     luaglue.obj
 0003:00000470       __mep@?findindex@?A0xd55f0479@@$$FYGHPAUlua_State@@PAUTable@@PAUlua_TValue@@@Z 10042470     luaglue.obj
 0003:00000474       __mep@?singlematch@?A0xd55f0479@@$$FYGHHPBD0@Z 10042474     luaglue.obj
 0003:00000478       __mep@?newlstr@?A0xd55f0479@@$$FYGPATTString@@PAUlua_State@@PBDII@Z 10042478     luaglue.obj
 0003:0000047c       __mep@?getiofile@?A0xd55f0479@@$$FYGPAU_iobuf@@PAUlua_State@@H@Z 1004247c     luaglue.obj
 0003:00000480       __mep@?luaC_linkupval@@$$FYGXPAUlua_State@@PAUUpVal@@@Z 10042480     luaglue.obj
 0003:00000484       __mep@?markroot@?A0xd55f0479@@$$FYGXPAUlua_State@@@Z 10042484     luaglue.obj
 0003:00000488       __mep@?luaF_close@@$$FYGXPAUlua_State@@PAUlua_TValue@@@Z 10042488     luaglue.obj
 0003:0000048c       __mep@?DumpConstants@?A0xd55f0479@@$$FYGXPBUProto@@PAUDumpState@@@Z 1004248c     luaglue.obj
 0003:00000490       __mep@?DumpVector@?A0xd55f0479@@$$FYGXPBXHIPAUDumpState@@@Z 10042490     luaglue.obj
 0003:00000494       __mep@?addinfo@?A0xd55f0479@@$$FYGXPAUlua_State@@PBD@Z 10042494     luaglue.obj
 0003:00000498       __mep@?getobjname@?A0xd55f0479@@$$FYGPBDPAUlua_State@@PAUCallInfo@@HPAPBD@Z 10042498     luaglue.obj
 0003:0000049c       __mep@?luaG_checkcode@@$$FYGHPBUProto@@@Z 1004249c     luaglue.obj
 0003:000004a0       __mep@?lua_setlocal@@$$FYGPBDPAUlua_State@@PBUlua_Debug@@H@Z 100424a0     luaglue.obj
 0003:000004a4       __mep@?lua_getlocal@@$$FYGPBDPAUlua_State@@PBUlua_Debug@@H@Z 100424a4     luaglue.obj
 0003:000004a8       __mep@?getthread@?A0xd55f0479@@$$FYGPAUlua_State@@PAU2@PAH@Z 100424a8     luaglue.obj
 0003:000004ac       __mep@?db_getregistry@?A0xd55f0479@@$$FYGHPAUlua_State@@@Z 100424ac     luaglue.obj
 0003:000004b0       __mep@?removevalues@?A0xd55f0479@@$$FYGXPAUFuncState@@H@Z 100424b0     luaglue.obj
 0003:000004b4       __mep@?load_aux@?A0xd55f0479@@$$FYGHPAUlua_State@@H@Z 100424b4     luaglue.obj
 0003:000004b8       __mep@?lua_topointer@@$$FYGPBXPAUlua_State@@H@Z 100424b8     luaglue.obj
 0003:000004bc       __mep@?lua_isstring@@$$FYGHPAUlua_State@@H@Z 100424bc     luaglue.obj
 0003:000004c0       __mep@?luaH_getn@@$$FYGHPAUTable@@@Z 100424c0     luaglue.obj
 0003:000004c4       __mep@?luaH_next@@$$FYGHPAUlua_State@@PAUTable@@PAUlua_TValue@@@Z 100424c4     luaglue.obj
 0003:000004c8       __mep@?min_expand@?A0xd55f0479@@$$FYGPBDPAUMatchState@@PBD11@Z 100424c8     luaglue.obj
 0003:000004cc       __mep@?max_expand@?A0xd55f0479@@$$FYGPBDPAUMatchState@@PBD11@Z 100424cc     luaglue.obj
 0003:000004d0       __mep@?luaS_newlstr@@$$FYGPATTString@@PAUlua_State@@PBDI@Z 100424d0     luaglue.obj
 0003:000004d4       __mep@?luaX_init@@$$FYGXPAUlua_State@@@Z 100424d4     luaglue.obj
 0003:000004d8       __mep@?io_flush@?A0xd55f0479@@$$FYGHPAUlua_State@@@Z 100424d8     luaglue.obj
 0003:000004dc       __mep@?DumpDebug@?A0xd55f0479@@$$FYGXPBUProto@@PAUDumpState@@@Z 100424dc     luaglue.obj
 0003:000004e0       __mep@?luaD_seterrorobj@@$$FYGXPAUlua_State@@HPAUlua_TValue@@@Z 100424e0     luaglue.obj
 0003:000004e4       __mep@?luaG_typeerror@@$$FYGXPAUlua_State@@PBUlua_TValue@@PBD@Z 100424e4     luaglue.obj
 0003:000004e8       __mep@?getfuncname@?A0xd55f0479@@$$FYGPBDPAUlua_State@@PAUCallInfo@@PAPBD@Z 100424e8     luaglue.obj
 0003:000004ec       __mep@?auxgetinfo@?A0xd55f0479@@$$FYGHPAUlua_State@@PBDPAUlua_Debug@@PATClosure@@PAUCallInfo@@@Z 100424ec     luaglue.obj
 0003:000004f0       __mep@?lua_next@@$$FYGHPAUlua_State@@H@Z 100424f0     luaglue.obj
 0003:000004f4       __mep@?luaV_tostring@@$$FYGHPAUlua_State@@PAUlua_TValue@@@Z 100424f4     luaglue.obj
 0003:000004f8       __mep@?luaT_init@@$$FYGXPAUlua_State@@@Z 100424f8     luaglue.obj
 0003:000004fc       __mep@?match@?A0xd55f0479@@$$FYGPBDPAUMatchState@@PBD1@Z 100424fc     luaglue.obj
 0003:00000500       __mep@?DumpFunction@?A0xd55f0479@@$$FYGXPBUProto@@PBTTString@@PAUDumpState@@@Z 10042500     luaglue.obj
 0003:00000504       __mep@?luaD_pcall@@$$FYGHPAUlua_State@@P6GX0PAX@Z1HH@Z 10042504     luaglue.obj
 0003:00000508       __mep@?resetstack@?A0xd55f0479@@$$FYGXPAUlua_State@@H@Z 10042508     luaglue.obj
 0003:0000050c       __mep@?luaG_aritherror@@$$FYGXPAUlua_State@@PBUlua_TValue@@1@Z 1004250c     luaglue.obj
 0003:00000510       __mep@?luaG_concaterror@@$$FYGXPAUlua_State@@PAUlua_TValue@@1@Z 10042510     luaglue.obj
 0003:00000514       __mep@?lua_objlen@@$$FYGIPAUlua_State@@H@Z 10042514     luaglue.obj
 0003:00000518       __mep@?luaU_dump@@$$FYGHPAUlua_State@@PBUProto@@P6GH0PBXIPAX@Z3H@Z 10042518     luaglue.obj
 0003:0000051c       __mep@?luaD_throw@@$$FYGXPAUlua_State@@H@Z 1004251c     luaglue.obj
 0003:00000520       __mep@?lua_dump@@$$FYGHPAUlua_State@@P6GH0PBXIPAX@Z2@Z 10042520     luaglue.obj
 0003:00000524       __mep@?error@?A0xd55f0479@@$$FYGXPAULoadState@@PBD@Z 10042524     luaglue.obj
 0003:00000528       __mep@?luaM_realloc_@@$$FYGPAXPAUlua_State@@PAXII@Z 10042528     luaglue.obj
 0003:0000052c       __mep@?luaM_growaux_@@$$FYGPAXPAUlua_State@@PAXPAHIHPBD@Z 1004252c     luaglue.obj
 0003:00000530       __mep@?luaX_setinput@@$$FYGXPAUlua_State@@PAULexState@@PAUZio@@PATTString@@@Z 10042530     luaglue.obj
 0003:00000534       __mep@?save@?A0xd55f0479@@$$FYGXPAULexState@@H@Z 10042534     luaglue.obj
 0003:00000538       __mep@?checkSizes@?A0xd55f0479@@$$FYGXPAUlua_State@@@Z 10042538     luaglue.obj
 0003:0000053c       __mep@?luaF_freeclosure@@$$FYGXPAUlua_State@@PATClosure@@@Z 1004253c     luaglue.obj
 0003:00000540       __mep@?luaF_freeproto@@$$FYGXPAUlua_State@@PAUProto@@@Z 10042540     luaglue.obj
 0003:00000544       __mep@?luaF_newproto@@$$FYGPAUProto@@PAUlua_State@@@Z 10042544     luaglue.obj
 0003:00000548       __mep@?luaF_findupval@@$$FYGPAUUpVal@@PAUlua_State@@PAUlua_TValue@@@Z 10042548     luaglue.obj
 0003:0000054c       __mep@?luaF_newupval@@$$FYGPAUUpVal@@PAUlua_State@@@Z 1004254c     luaglue.obj
 0003:00000550       __mep@?luaF_newLclosure@@$$FYGPATClosure@@PAUlua_State@@HPAUTable@@@Z 10042550     luaglue.obj
 0003:00000554       __mep@?luaF_newCclosure@@$$FYGPATClosure@@PAUlua_State@@HPAUTable@@@Z 10042554     luaglue.obj
 0003:00000558       __mep@?luaD_call@@$$FYGXPAUlua_State@@PAUlua_TValue@@H@Z 10042558     luaglue.obj
 0003:0000055c       __mep@?growCI@?A0xd55f0479@@$$FYGPAUCallInfo@@PAUlua_State@@@Z 1004255c     luaglue.obj
 0003:00000560       __mep@?luaD_reallocstack@@$$FYGXPAUlua_State@@H@Z 10042560     luaglue.obj
 0003:00000564       __mep@?addk@?A0xd55f0479@@$$FYGHPAUFuncState@@PAUlua_TValue@@1@Z 10042564     luaglue.obj
 0003:00000568       __mep@?f_Ccall@?A0xd55f0479@@$$FYGXPAUlua_State@@PAX@Z 10042568     luaglue.obj
 0003:0000056c       __mep@?f_call@?A0xd55f0479@@$$FYGXPAUlua_State@@PAX@Z 1004256c     luaglue.obj
 0003:00000570       __mep@?lua_call@@$$FYGXPAUlua_State@@HH@Z 10042570     luaglue.obj
 0003:00000574       __mep@?luaZ_openspace@@$$FYGPADPAUlua_State@@PAUMbuffer@@I@Z 10042574     luaglue.obj
 0003:00000578       __mep@?LoadBlock@?A0xd55f0479@@$$FYGXPAULoadState@@PAXI@Z 10042578     luaglue.obj
 0003:0000057c       __mep@?luaH_free@@$$FYGXPAUlua_State@@PAUTable@@@Z 1004257c     luaglue.obj
 0003:00000580       __mep@?setnodevector@?A0xd55f0479@@$$FYGXPAUlua_State@@PAUTable@@H@Z 10042580     luaglue.obj
 0003:00000584       __mep@?setarrayvector@?A0xd55f0479@@$$FYGXPAUlua_State@@PAUTable@@H@Z 10042584     luaglue.obj
 0003:00000588       __mep@?luaS_newudata@@$$FYGPATUdata@@PAUlua_State@@IPAUTable@@@Z 10042588     luaglue.obj
 0003:0000058c       __mep@?freestack@?A0xd55f0479@@$$FYGXPAUlua_State@@0@Z 1004258c     luaglue.obj
 0003:00000590       __mep@?stack_init@?A0xd55f0479@@$$FYGXPAUlua_State@@0@Z 10042590     luaglue.obj
 0003:00000594       __mep@?registerlocalvar@?A0xd55f0479@@$$FYGHPAULexState@@PATTString@@@Z 10042594     luaglue.obj
 0003:00000598       __mep@?dooptions@?A0xd55f0479@@$$FYGXPAUlua_State@@H@Z 10042598     luaglue.obj
 0003:0000059c       __mep@?skip_sep@?A0xd55f0479@@$$FYGHPAULexState@@@Z 1004259c     luaglue.obj
 0003:000005a0       __mep@?check_next@?A0xd55f0479@@$$FYGHPAULexState@@PBD@Z 100425a0     luaglue.obj
 0003:000005a4       __mep@?txtToken@?A0xd55f0479@@$$FYGPBDPAULexState@@H@Z 100425a4     luaglue.obj
 0003:000005a8       __mep@?GCTM@?A0xd55f0479@@$$FYGXPAUlua_State@@@Z 100425a8     luaglue.obj
 0003:000005ac       __mep@?checkstacksizes@?A0xd55f0479@@$$FYGXPAUlua_State@@PAUlua_TValue@@@Z 100425ac     luaglue.obj
 0003:000005b0       __mep@?luaD_growstack@@$$FYGXPAUlua_State@@H@Z 100425b0     luaglue.obj
 0003:000005b4       __mep@?luaG_errormsg@@$$FYGXPAUlua_State@@@Z 100425b4     luaglue.obj
 0003:000005b8       __mep@?nilK@?A0xd55f0479@@$$FYGHPAUFuncState@@@Z 100425b8     luaglue.obj
 0003:000005bc       __mep@?boolK@?A0xd55f0479@@$$FYGHPAUFuncState@@H@Z 100425bc     luaglue.obj
 0003:000005c0       __mep@?luaK_numberK@@$$FYGHPAUFuncState@@N@Z 100425c0     luaglue.obj
 0003:000005c4       __mep@?luaK_stringK@@$$FYGHPAUFuncState@@PATTString@@@Z 100425c4     luaglue.obj
 0003:000005c8       __mep@?lua_error@@$$FYGHPAUlua_State@@@Z 100425c8     luaglue.obj
 0003:000005cc       __mep@?lua_cpcall@@$$FYGHPAUlua_State@@P6GH0@ZPAX@Z 100425cc     luaglue.obj
 0003:000005d0       __mep@?lua_pcall@@$$FYGHPAUlua_State@@HHH@Z 100425d0     luaglue.obj
 0003:000005d4       __mep@?lua_checkstack@@$$FYGHPAUlua_State@@H@Z 100425d4     luaglue.obj
 0003:000005d8       __mep@?callTM@?A0xd55f0479@@$$FYGXPAUlua_State@@PBUlua_TValue@@111@Z 100425d8     luaglue.obj
 0003:000005dc       __mep@?callTMres@?A0xd55f0479@@$$FYGXPAUlua_State@@PAUlua_TValue@@PBU3@22@Z 100425dc     luaglue.obj
 0003:000005e0       __mep@?LoadHeader@?A0xd55f0479@@$$FYGXPAULoadState@@@Z 100425e0     luaglue.obj
 0003:000005e4       __mep@?LoadStringW@?A0xd55f0479@@$$FYGPATTString@@PAULoadState@@@Z 100425e4     luaglue.obj
 0003:000005e8       __mep@?LoadNumber@?A0xd55f0479@@$$FYGNPAULoadState@@@Z 100425e8     luaglue.obj
 0003:000005ec       __mep@?LoadInt@?A0xd55f0479@@$$FYGHPAULoadState@@@Z 100425ec     luaglue.obj
 0003:000005f0       __mep@?LoadChar@?A0xd55f0479@@$$FYGHPAULoadState@@@Z 100425f0     luaglue.obj
 0003:000005f4       __mep@?luaH_new@@$$FYGPAUTable@@PAUlua_State@@HH@Z 100425f4     luaglue.obj
 0003:000005f8       __mep@?resize@?A0xd55f0479@@$$FYGXPAUlua_State@@PAUTable@@HH@Z 100425f8     luaglue.obj
 0003:000005fc       __mep@?luaE_freethread@@$$FYGXPAUlua_State@@0@Z 100425fc     luaglue.obj
 0003:00000600       __mep@?luaE_newthread@@$$FYGPAUlua_State@@PAU1@@Z 10042600     luaglue.obj
 0003:00000604       __mep@?f_luaopen@?A0xd55f0479@@$$FYGXPAUlua_State@@PAX@Z 10042604     luaglue.obj
 0003:00000608       __mep@?open_func@?A0xd55f0479@@$$FYGXPAULexState@@PAUFuncState@@@Z 10042608     luaglue.obj
 0003:0000060c       __mep@?codestring@?A0xd55f0479@@$$FYGXPAULexState@@PAUexpdesc@@PATTString@@@Z 1004260c     luaglue.obj
 0003:00000610       __mep@?pushstr@?A0xd55f0479@@$$FYGXPAUlua_State@@PBD@Z 10042610     luaglue.obj
 0003:00000614       __mep@?luaX_lexerror@@$$FYGXPAULexState@@PBDH@Z 10042614     luaglue.obj
 0003:00000618       __mep@?luaC_callGCTM@@$$FYGXPAUlua_State@@@Z 10042618     luaglue.obj
 0003:0000061c       __mep@?freeobj@?A0xd55f0479@@$$FYGXPAUlua_State@@PATGCObject@@@Z 1004261c     luaglue.obj
 0003:00000620       __mep@?traversestack@?A0xd55f0479@@$$FYGXPAUglobal_State@@PAUlua_State@@@Z 10042620     luaglue.obj
 0003:00000624       __mep@?resume_error@?A0xd55f0479@@$$FYGHPAUlua_State@@PBD@Z 10042624     luaglue.obj
 0003:00000628       __mep@?tryfuncTM@?A0xd55f0479@@$$FYGPAUlua_TValue@@PAUlua_State@@PAU2@@Z 10042628     luaglue.obj
 0003:0000062c       __mep@?luaD_callhook@@$$FYGXPAUlua_State@@HH@Z 1004262c     luaglue.obj
 0003:00000630       __mep@?luaL_checkstack@@$$FYGXPAUlua_State@@HPBD@Z 10042630     luaglue.obj
 0003:00000634       __mep@?luaV_equalval@@$$FYGHPAUlua_State@@PBUlua_TValue@@1@Z 10042634     luaglue.obj
 0003:00000638       __mep@?call_orderTM@?A0xd55f0479@@$$FYGHPAUlua_State@@PBUlua_TValue@@1W4TMS@@@Z 10042638     luaglue.obj
 0003:0000063c       __mep@?call_binTM@?A0xd55f0479@@$$FYGHPAUlua_State@@PBUlua_TValue@@1PAU3@W4TMS@@@Z 1004263c     luaglue.obj
 0003:00000640       __mep@?luaV_settable@@$$FYGXPAUlua_State@@PBUlua_TValue@@PAU2@2@Z 10042640     luaglue.obj
 0003:00000644       __mep@?luaV_gettable@@$$FYGXPAUlua_State@@PBUlua_TValue@@PAU2@2@Z 10042644     luaglue.obj
 0003:00000648       __mep@?traceexec@?A0xd55f0479@@$$FYGXPAUlua_State@@PBI@Z 10042648     luaglue.obj
 0003:0000064c       __mep@?LoadDebug@?A0xd55f0479@@$$FYGXPAULoadState@@PAUProto@@@Z 1004264c     luaglue.obj
 0003:00000650       __mep@?LoadConstants@?A0xd55f0479@@$$FYGXPAULoadState@@PAUProto@@@Z 10042650     luaglue.obj
 0003:00000654       __mep@?LoadCode@?A0xd55f0479@@$$FYGXPAULoadState@@PAUProto@@@Z 10042654     luaglue.obj
 0003:00000658       __mep@?rehash@?A0xd55f0479@@$$FYGXPAUlua_State@@PAUTable@@PBUlua_TValue@@@Z 10042658     luaglue.obj
 0003:0000065c       __mep@?luaH_resizearray@@$$FYGXPAUlua_State@@PAUTable@@H@Z 1004265c     luaglue.obj
 0003:00000660       __mep@?callallgcTM@?A0xd55f0479@@$$FYGXPAUlua_State@@PAX@Z 10042660     luaglue.obj
 0003:00000664       __mep@?enterlevel@?A0xd55f0479@@$$FYGXPAULexState@@@Z 10042664     luaglue.obj
 0003:00000668       __mep@?errorlimit@?A0xd55f0479@@$$FYGXPAUFuncState@@HPBD@Z 10042668     luaglue.obj
 0003:0000066c       __mep@?trydecpoint@?A0xd55f0479@@$$FYGXPAULexState@@PATSemInfo@@@Z 1004266c     luaglue.obj
 0003:00000670       __mep@?luaX_syntaxerror@@$$FYGXPAULexState@@PBD@Z 10042670     luaglue.obj
 0003:00000674       __mep@?sweeplist@?A0xd55f0479@@$$FYGPAPATGCObject@@PAUlua_State@@PAPAT2@I@Z 10042674     luaglue.obj
 0003:00000678       __mep@?propagatemark@?A0xd55f0479@@$$FYGHPAUglobal_State@@@Z 10042678     luaglue.obj
 0003:0000067c       __mep@?callrethooks@?A0xd55f0479@@$$FYGPAUlua_TValue@@PAUlua_State@@PAU2@@Z 1004267c     luaglue.obj
 0003:00000680       __mep@?luaK_checkstack@@$$FYGXPAUFuncState@@H@Z 10042680     luaglue.obj
 0003:00000684       __mep@?fixjump@?A0xd55f0479@@$$FYGXPAUFuncState@@HH@Z 10042684     luaglue.obj
 0003:00000688       __mep@?lua_setfield@@$$FYGXPAUlua_State@@HPBD@Z 10042688     luaglue.obj
 0003:0000068c       __mep@?lua_settable@@$$FYGXPAUlua_State@@H@Z 1004268c     luaglue.obj
 0003:00000690       __mep@?lua_getfield@@$$FYGXPAUlua_State@@HPBD@Z 10042690     luaglue.obj
 0003:00000694       __mep@?lua_gettable@@$$FYGXPAUlua_State@@H@Z 10042694     luaglue.obj
 0003:00000698       __mep@?lua_equal@@$$FYGHPAUlua_State@@HH@Z 10042698     luaglue.obj
 0003:0000069c       __mep@?Arith@?A0xd55f0479@@$$FYGXPAUlua_State@@PAUlua_TValue@@PBU3@2W4TMS@@@Z 1004269c     luaglue.obj
 0003:000006a0       __mep@?luaV_concat@@$$FYGXPAUlua_State@@HH@Z 100426a0     luaglue.obj
 0003:000006a4       __mep@?lessequal@?A0xd55f0479@@$$FYGHPAUlua_State@@PBUlua_TValue@@1@Z 100426a4     luaglue.obj
 0003:000006a8       __mep@?luaV_lessthan@@$$FYGHPAUlua_State@@PBUlua_TValue@@1@Z 100426a8     luaglue.obj
 0003:000006ac       __mep@?LoadFunction@?A0xd55f0479@@$$FYGPAUProto@@PAULoadState@@PATTString@@@Z 100426ac     luaglue.obj
 0003:000006b0       __mep@?traceback@?A0xd55f0479@@$$FYGHPAUlua_State@@@Z 100426b0     luaglue.obj
 0003:000006b4       __mep@?newkey@?A0xd55f0479@@$$FYGPAUlua_TValue@@PAUlua_State@@PAUTable@@PBU2@@Z 100426b4     luaglue.obj
 0003:000006b8       __mep@?listfield@?A0xd55f0479@@$$FYGXPAULexState@@PAUConsControl@@@Z 100426b8     luaglue.obj
 0003:000006bc       __mep@?indexupvalue@?A0xd55f0479@@$$FYGHPAUFuncState@@PATTString@@PAUexpdesc@@@Z 100426bc     luaglue.obj
 0003:000006c0       __mep@?new_localvar@?A0xd55f0479@@$$FYGXPAULexState@@PATTString@@H@Z 100426c0     luaglue.obj
 0003:000006c4       __mep@?error_expected@?A0xd55f0479@@$$FYGXPAULexState@@H@Z 100426c4     luaglue.obj
 0003:000006c8       __mep@?getfield@?A0xd55f0479@@$$FYGHPAUlua_State@@PBDH@Z 100426c8     luaglue.obj
 0003:000006cc       __mep@?getboolfield@?A0xd55f0479@@$$FYGHPAUlua_State@@PBD@Z 100426cc     luaglue.obj
 0003:000006d0       __mep@?setboolfield@?A0xd55f0479@@$$FYGXPAUlua_State@@PBDH@Z 100426d0     luaglue.obj
 0003:000006d4       __mep@?setfield@?A0xd55f0479@@$$FYGXPAUlua_State@@PBDH@Z 100426d4     luaglue.obj
 0003:000006d8       __mep@?read_numeral@?A0xd55f0479@@$$FYGXPAULexState@@PATSemInfo@@@Z 100426d8     luaglue.obj
 0003:000006dc       __mep@?inclinenumber@?A0xd55f0479@@$$FYGXPAULexState@@@Z 100426dc     luaglue.obj
 0003:000006e0       __mep@?aux_close@?A0xd55f0479@@$$FYGHPAUlua_State@@@Z 100426e0     luaglue.obj
 0003:000006e4       __mep@?luaC_freeall@@$$FYGXPAUlua_State@@@Z 100426e4     luaglue.obj
 0003:000006e8       __mep@?propagateall@?A0xd55f0479@@$$FYGIPAUglobal_State@@@Z 100426e8     luaglue.obj
 0003:000006ec       __mep@?luaD_poscall@@$$FYGHPAUlua_State@@PAUlua_TValue@@@Z 100426ec     luaglue.obj
 0003:000006f0       __mep@?treatstackoption@?A0xd55f0479@@$$FYGXPAUlua_State@@0PBD@Z 100426f0     luaglue.obj
 0003:000006f4       __mep@?settabsi@?A0xd55f0479@@$$FYGXPAUlua_State@@PBDH@Z 100426f4     luaglue.obj
 0003:000006f8       __mep@?luaK_reserveregs@@$$FYGXPAUFuncState@@H@Z 100426f8     luaglue.obj
 0003:000006fc       __mep@?luaK_concat@@$$FYGXPAUFuncState@@PAHH@Z 100426fc     luaglue.obj
 0003:00000700       __mep@?luaK_patchtohere@@$$FYGXPAUFuncState@@H@Z 10042700     luaglue.obj
 0003:00000704       __mep@?patchlistaux@?A0xd55f0479@@$$FYGXPAUFuncState@@HHHH@Z 10042704     luaglue.obj
 0003:00000708       __mep@?lua_lessthan@@$$FYGHPAUlua_State@@HH@Z 10042708     luaglue.obj
 0003:0000070c       __mep@?luaU_undump@@$$FYGPAUProto@@PAUlua_State@@PAUZio@@PAUMbuffer@@PBD@Z 1004270c     luaglue.obj
 0003:00000710       __mep@?sort_comp@?A0xd55f0479@@$$FYGHPAUlua_State@@HH@Z 10042710     luaglue.obj
 0003:00000714       __mep@?luaH_setstr@@$$FYGPAUlua_TValue@@PAUlua_State@@PAUTable@@PATTString@@@Z 10042714     luaglue.obj
 0003:00000718       __mep@?luaH_setnum@@$$FYGPAUlua_TValue@@PAUlua_State@@PAUTable@@H@Z 10042718     luaglue.obj
 0003:0000071c       __mep@?close_state@?A0xd55f0479@@$$FYGXPAUlua_State@@@Z 1004271c     luaglue.obj
 0003:00000720       __mep@?singlevaraux@?A0xd55f0479@@$$FYGHPAUFuncState@@PATTString@@PAUexpdesc@@H@Z 10042720     luaglue.obj
 0003:00000724       __mep@?check@?A0xd55f0479@@$$FYGXPAULexState@@H@Z 10042724     luaglue.obj
 0003:00000728       __mep@?atomic@?A0xd55f0479@@$$FYGXPAUlua_State@@@Z 10042728     luaglue.obj
 0003:0000072c       __mep@?collectvalidlines@?A0xd55f0479@@$$FYGXPAUlua_State@@PATClosure@@@Z 1004272c     luaglue.obj
 0003:00000730       __mep@?luaK_setreturns@@$$FYGXPAUFuncState@@PAUexpdesc@@H@Z 10042730     luaglue.obj
 0003:00000734       __mep@?luaK_patchlist@@$$FYGXPAUFuncState@@HH@Z 10042734     luaglue.obj
 0003:00000738       __mep@?dischargejpc@?A0xd55f0479@@$$FYGXPAUFuncState@@@Z 10042738     luaglue.obj
 0003:0000073c       __mep@?lua_rawseti@@$$FYGXPAUlua_State@@HH@Z 1004273c     luaglue.obj
 0003:00000740       __mep@?set2@?A0xd55f0479@@$$FYGXPAUlua_State@@HH@Z 10042740     luaglue.obj
 0003:00000744       __mep@?lua_close@@$$FYGXPAUlua_State@@@Z 10042744     luaglue.obj
 0003:00000748       __mep@?lua_newstate@@$$FYGPAUlua_State@@P6GPAXPAX0II@Z0@Z 10042748     luaglue.obj
 0003:0000074c       __mep@?singlestep@?A0xd55f0479@@$$FYGHPAUlua_State@@@Z 1004274c     luaglue.obj
 0003:00000750       __mep@?lua_getinfo@@$$FYGHPAUlua_State@@PBDPAUlua_Debug@@@Z 10042750     luaglue.obj
 0003:00000754       __mep@?luaK_code@?A0xd55f0479@@$$FYGHPAUFuncState@@IH@Z 10042754     luaglue.obj
 0003:00000758       __mep@?luaL_unref@@$$FYGXPAUlua_State@@HH@Z 10042758     luaglue.obj
 0003:0000075c       __mep@?luaL_ref@@$$FYGHPAUlua_State@@H@Z 1004275c     luaglue.obj
 0003:00000760       __mep@?luaL_argerror@@$$FYGHPAUlua_State@@HPBD@Z 10042760     luaglue.obj
 0003:00000764       __mep@?auxsort@?A0xd55f0479@@$$FYGXPAUlua_State@@HH@Z 10042764     luaglue.obj
 0003:00000768       __mep@?setfenv@?A0xd55f0479@@$$FYGXPAUlua_State@@@Z 10042768     luaglue.obj
 0003:0000076c       __mep@?luaC_fullgc@@$$FYGXPAUlua_State@@@Z 1004276c     luaglue.obj
 0003:00000770       __mep@?luaC_step@@$$FYGXPAUlua_State@@@Z 10042770     luaglue.obj
 0003:00000774       __mep@?adjust_varargs@?A0xd55f0479@@$$FYGPAUlua_TValue@@PAUlua_State@@PAUProto@@H@Z 10042774     luaglue.obj
 0003:00000778       __mep@?db_setmetatable@?A0xd55f0479@@$$FYGHPAUlua_State@@@Z 10042778     luaglue.obj
 0003:0000077c       __mep@?luaK_codeABx@@$$FYGHPAUFuncState@@W4OpCode@@HI@Z 1004277c     luaglue.obj
 0003:00000780       __mep@?luaK_codeABC@@$$FYGHPAUFuncState@@W4OpCode@@HHH@Z 10042780     luaglue.obj
 0003:00000784       __mep@?code_label@?A0xd55f0479@@$$FYGHPAUFuncState@@HHH@Z 10042784     luaglue.obj
 0003:00000788       __mep@?luaK_dischargevars@@$$FYGXPAUFuncState@@PAUexpdesc@@@Z 10042788     luaglue.obj
 0003:0000078c       __mep@?luaK_ret@@$$FYGXPAUFuncState@@HH@Z 1004278c     luaglue.obj
 0003:00000790       __mep@?luaK_jump@@$$FYGHPAUFuncState@@@Z 10042790     luaglue.obj
 0003:00000794       __mep@?luaK_nil@@$$FYGXPAUFuncState@@HH@Z 10042794     luaglue.obj
 0003:00000798       __mep@?luaL_checkany@@$$FYGXPAUlua_State@@H@Z 10042798     luaglue.obj
 0003:0000079c       __mep@?luaL_typerror@@$$FYGHPAUlua_State@@HPBD@Z 1004279c     luaglue.obj
 0003:000007a0       __mep@?lua_newuserdata@@$$FYGPAXPAUlua_State@@I@Z 100427a0     luaglue.obj
 0003:000007a4       __mep@?lua_concat@@$$FYGXPAUlua_State@@H@Z 100427a4     luaglue.obj
 0003:000007a8       __mep@?lua_gc@@$$FYGHPAUlua_State@@HH@Z 100427a8     luaglue.obj
 0003:000007ac       __mep@?lua_createtable@@$$FYGXPAUlua_State@@HH@Z 100427ac     luaglue.obj
 0003:000007b0       __mep@?lua_pushcclosure@@$$FYGXPAUlua_State@@P6GH0@ZH@Z 100427b0     luaglue.obj
 0003:000007b4       __mep@?lua_pushvfstring@@$$FYGPBDPAUlua_State@@PBDPAD@Z 100427b4     luaglue.obj
 0003:000007b8       __mep@?lua_pushlstring@@$$FYGXPAUlua_State@@PBDI@Z 100427b8     luaglue.obj
 0003:000007bc       __mep@?lua_tolstring@@$$FYGPBDPAUlua_State@@HPAI@Z 100427bc     luaglue.obj
 0003:000007c0       __mep@?lua_newthread@@$$FYGPAUlua_State@@PAU1@@Z 100427c0     luaglue.obj
 0003:000007c4       __mep@?incomplete@?A0xd55f0479@@$$FYGHPAUlua_State@@H@Z 100427c4     luaglue.obj
 0003:000007c8       __mep@?get_prompt@?A0xd55f0479@@$$FYGPBDPAUlua_State@@H@Z 100427c8     luaglue.obj
 0003:000007cc       __mep@?docall@?A0xd55f0479@@$$FYGHPAUlua_State@@HH@Z 100427cc     luaglue.obj
 0003:000007d0       __mep@?report@?A0xd55f0479@@$$FYGHPAUlua_State@@H@Z 100427d0     luaglue.obj
 0003:000007d4       __mep@?createmetatable@?A0xd55f0479@@$$FYGXPAUlua_State@@@Z 100427d4     luaglue.obj
 0003:000007d8       __mep@?push_onecapture@?A0xd55f0479@@$$FYGXPAUMatchState@@HPBD1@Z 100427d8     luaglue.obj
 0003:000007dc       __mep@?breakstat@?A0xd55f0479@@$$FYGXPAULexState@@@Z 100427dc     luaglue.obj
 0003:000007e0       __mep@?check_conflict@?A0xd55f0479@@$$FYGXPAULexState@@PAULHS_assign@@PAUexpdesc@@@Z 100427e0     luaglue.obj
 0003:000007e4       __mep@?pushclosure@?A0xd55f0479@@$$FYGXPAULexState@@PAUFuncState@@PAUexpdesc@@@Z 100427e4     luaglue.obj
 0003:000007e8       __mep@?leaveblock@?A0xd55f0479@@$$FYGXPAUFuncState@@@Z 100427e8     luaglue.obj
 0003:000007ec       __mep@?loaderror@?A0xd55f0479@@$$FYGXPAUlua_State@@PBD@Z 100427ec     luaglue.obj
 0003:000007f0       __mep@?pushnexttemplate@?A0xd55f0479@@$$FYGPBDPAUlua_State@@PBD@Z 100427f0     luaglue.obj
 0003:000007f4       __mep@?ll_register@?A0xd55f0479@@$$FYGPAPAXPAUlua_State@@PBD@Z 100427f4     luaglue.obj
 0003:000007f8       __mep@?luaX_newstring@@$$FYGPATTString@@PAULexState@@PBDI@Z 100427f8     luaglue.obj
 0003:000007fc       __mep@?newfenv@?A0xd55f0479@@$$FYGXPAUlua_State@@P6GH0@Z@Z 100427fc     luaglue.obj
 0003:00000800       __mep@?test_eof@?A0xd55f0479@@$$FYGHPAUlua_State@@PAU_iobuf@@@Z 10042800     luaglue.obj
 0003:00000804       __mep@?io_noclose@?A0xd55f0479@@$$FYGHPAUlua_State@@@Z 10042804     luaglue.obj
 0003:00000808       __mep@?newfile@?A0xd55f0479@@$$FYGPAPAU_iobuf@@PAUlua_State@@@Z 10042808     luaglue.obj
 0003:0000080c       __mep@?io_type@?A0xd55f0479@@$$FYGHPAUlua_State@@@Z 1004280c     luaglue.obj
 0003:00000810       __mep@?fileerror@?A0xd55f0479@@$$FYGXPAUlua_State@@HPBD@Z 10042810     luaglue.obj
 0003:00000814       __mep@?luaD_precall@@$$FYGHPAUlua_State@@PAUlua_TValue@@H@Z 10042814     luaglue.obj
 0003:00000818       __mep@?db_errorfb@?A0xd55f0479@@$$FYGHPAUlua_State@@@Z 10042818     luaglue.obj
 0003:0000081c       __mep@?gethooktable@?A0xd55f0479@@$$FYGXPAUlua_State@@@Z 1004281c     luaglue.obj
 0003:00000820       __mep@?db_getfenv@?A0xd55f0479@@$$FYGHPAUlua_State@@@Z 10042820     luaglue.obj
 0003:00000824       __mep@?db_getmetatable@?A0xd55f0479@@$$FYGHPAUlua_State@@@Z 10042824     luaglue.obj
 0003:00000828       __mep@?luaK_setlist@@$$FYGXPAUFuncState@@HHH@Z 10042828     luaglue.obj
 0003:0000082c       __mep@?discharge2reg@?A0xd55f0479@@$$FYGXPAUFuncState@@PAUexpdesc@@H@Z 1004282c     luaglue.obj
 0003:00000830       __mep@?condjump@?A0xd55f0479@@$$FYGHPAUFuncState@@W4OpCode@@HHH@Z 10042830     luaglue.obj
 0003:00000834       __mep@?auxopen@?A0xd55f0479@@$$FYGXPAUlua_State@@PBDP6GH0@Z2@Z 10042834     luaglue.obj
 0003:00000838       __mep@?luaB_cocreate@?A0xd55f0479@@$$FYGHPAUlua_State@@@Z 10042838     luaglue.obj
 0003:0000083c       __mep@?luaB_newproxy@?A0xd55f0479@@$$FYGHPAUlua_State@@@Z 1004283c     luaglue.obj
 0003:00000840       __mep@?luaB_xpcall@?A0xd55f0479@@$$FYGHPAUlua_State@@@Z 10042840     luaglue.obj
 0003:00000844       __mep@?luaB_pcall@?A0xd55f0479@@$$FYGHPAUlua_State@@@Z 10042844     luaglue.obj
 0003:00000848       __mep@?generic_reader@?A0xd55f0479@@$$FYGPBDPAUlua_State@@PAXPAI@Z 10042848     luaglue.obj
 0003:0000084c       __mep@?luaB_gcinfo@?A0xd55f0479@@$$FYGHPAUlua_State@@@Z 1004284c     luaglue.obj
 0003:00000850       __mep@?luaB_rawequal@?A0xd55f0479@@$$FYGHPAUlua_State@@@Z 10042850     luaglue.obj
 0003:00000854       __mep@?luaB_print@?A0xd55f0479@@$$FYGHPAUlua_State@@@Z 10042854     luaglue.obj
 0003:00000858       __mep@?panic@?A0xd55f0479@@$$FYGHPAUlua_State@@@Z 10042858     luaglue.obj
 0003:0000085c       __mep@?errfile@?A0xd55f0479@@$$FYGHPAUlua_State@@PBDH@Z 1004285c     luaglue.obj
 0003:00000860       __mep@?adjuststack@?A0xd55f0479@@$$FYGXPAUluaL_Buffer@@@Z 10042860     luaglue.obj
 0003:00000864       __mep@?emptybuffer@?A0xd55f0479@@$$FYGHPAUluaL_Buffer@@@Z 10042864     luaglue.obj
 0003:00000868       __mep@?luaL_findtable@@$$FYGPBDPAUlua_State@@HPBDH@Z 10042868     luaglue.obj
 0003:0000086c       __mep@?luaL_openlib@@$$FYGXPAUlua_State@@PBDPBUluaL_Reg@@H@Z 1004286c     luaglue.obj
 0003:00000870       __mep@?luaL_register@@$$FYGXPAUlua_State@@PBDPBUluaL_Reg@@@Z 10042870     luaglue.obj
 0003:00000874       __mep@?luaL_checkudata@@$$FYGPAXPAUlua_State@@HPBD@Z 10042874     luaglue.obj
 0003:00000878       __mep@?luaL_newmetatable@@$$FYGHPAUlua_State@@PBD@Z 10042878     luaglue.obj
 0003:0000087c       __mep@?luaL_where@@$$FYGXPAUlua_State@@H@Z 1004287c     luaglue.obj
 0003:00000880       __mep@?tag_error@?A0xd55f0479@@$$FYGXPAUlua_State@@HH@Z 10042880     luaglue.obj
 0003:00000884       __mep@?lua_pushstring@@$$FYGXPAUlua_State@@PBD@Z 10042884     luaglue.obj
 0003:00000888       __mep@?luaV_execute@@$$FYGXPAUlua_State@@H@Z 10042888     luaglue.obj
 0003:0000088c       __mep@?pushline@?A0xd55f0479@@$$FYGHPAUlua_State@@H@Z 1004288c     luaglue.obj
 0003:00000890       __mep@?dolibrary@?A0xd55f0479@@$$FYGHPAUlua_State@@PBD@Z 10042890     luaglue.obj
 0003:00000894       __mep@?getargs@?A0xd55f0479@@$$FYGHPAUlua_State@@PAPADH@Z 10042894     luaglue.obj
 0003:00000898       __mep@?luaopen_table@@$$FYGHPAUlua_State@@@Z 10042898     luaglue.obj
 0003:0000089c       __mep@?luaopen_string@@$$FYGHPAUlua_State@@@Z 1004289c     luaglue.obj
 0003:000008a0       __mep@?push_captures@?A0xd55f0479@@$$FYGHPAUMatchState@@PBD1@Z 100428a0     luaglue.obj
 0003:000008a4       __mep@?block@?A0xd55f0479@@$$FYGXPAULexState@@@Z 100428a4     luaglue.obj
 0003:000008a8       __mep@?anchor_token@?A0xd55f0479@@$$FYGXPAULexState@@@Z 100428a8     luaglue.obj
 0003:000008ac       __mep@?luaopen_os@@$$FYGHPAUlua_State@@@Z 100428ac     luaglue.obj
 0003:000008b0       __mep@?os_tmpname@?A0xd55f0479@@$$FYGHPAUlua_State@@@Z 100428b0     luaglue.obj
 0003:000008b4       __mep@?modinit@?A0xd55f0479@@$$FYGXPAUlua_State@@PBD@Z 100428b4     luaglue.obj
 0003:000008b8       __mep@?gctm@?A0xd55f0479@@$$FYGHPAUlua_State@@@Z 100428b8     luaglue.obj
 0003:000008bc       __mep@?pusherror@?A0xd55f0479@@$$FYGXPAUlua_State@@@Z 100428bc     luaglue.obj
 0003:000008c0       __mep@?luaopen_math@@$$FYGHPAUlua_State@@@Z 100428c0     luaglue.obj
 0003:000008c4       __mep@?read_string@?A0xd55f0479@@$$FYGXPAULexState@@HPATSemInfo@@@Z 100428c4     luaglue.obj
 0003:000008c8       __mep@?read_long_string@?A0xd55f0479@@$$FYGXPAULexState@@PATSemInfo@@H@Z 100428c8     luaglue.obj
 0003:000008cc       __mep@?createstdfile@?A0xd55f0479@@$$FYGXPAUlua_State@@PAU_iobuf@@HPBD@Z 100428cc     luaglue.obj
 0003:000008d0       __mep@?createmeta@?A0xd55f0479@@$$FYGXPAUlua_State@@@Z 100428d0     luaglue.obj
 0003:000008d4       __mep@?io_tmpfile@?A0xd55f0479@@$$FYGHPAUlua_State@@@Z 100428d4     luaglue.obj
 0003:000008d8       __mep@?io_tostring@?A0xd55f0479@@$$FYGHPAUlua_State@@@Z 100428d8     luaglue.obj
 0003:000008dc       __mep@?io_gc@?A0xd55f0479@@$$FYGHPAUlua_State@@@Z 100428dc     luaglue.obj
 0003:000008e0       __mep@?io_fclose@?A0xd55f0479@@$$FYGHPAUlua_State@@@Z 100428e0     luaglue.obj
 0003:000008e4       __mep@?io_pclose@?A0xd55f0479@@$$FYGHPAUlua_State@@@Z 100428e4     luaglue.obj
 0003:000008e8       __mep@?tofile@?A0xd55f0479@@$$FYGPAU_iobuf@@PAUlua_State@@@Z 100428e8     luaglue.obj
 0003:000008ec       __mep@?luaL_openlibs@@$$FYGXPAUlua_State@@@Z 100428ec     luaglue.obj
 0003:000008f0       __mep@?resume@?A0xd55f0479@@$$FYGXPAUlua_State@@PAX@Z 100428f0     luaglue.obj
 0003:000008f4       __mep@?luaopen_debug@@$$FYGHPAUlua_State@@@Z 100428f4     luaglue.obj
 0003:000008f8       __mep@?hookf@?A0xd55f0479@@$$FYGXPAUlua_State@@PAUlua_Debug@@@Z 100428f8     luaglue.obj
 0003:000008fc       __mep@?settabss@?A0xd55f0479@@$$FYGXPAUlua_State@@PBD1@Z 100428fc     luaglue.obj
 0003:00000900       __mep@?exp2reg@?A0xd55f0479@@$$FYGXPAUFuncState@@PAUexpdesc@@H@Z 10042900     luaglue.obj
 0003:00000904       __mep@?discharge2anyreg@?A0xd55f0479@@$$FYGXPAUFuncState@@PAUexpdesc@@@Z 10042904     luaglue.obj
 0003:00000908       __mep@?luaB_costatus@?A0xd55f0479@@$$FYGHPAUlua_State@@@Z 10042908     luaglue.obj
 0003:0000090c       __mep@?luaB_type@?A0xd55f0479@@$$FYGHPAUlua_State@@@Z 1004290c     luaglue.obj
 0003:00000910       __mep@?luaL_newstate@@$$FYGPAUlua_State@@XZ 10042910     luaglue.obj
 0003:00000914       __mep@?luaL_addvalue@@$$FYGXPAUluaL_Buffer@@@Z 10042914     luaglue.obj
 0003:00000918       __mep@?luaL_pushresult@@$$FYGXPAUluaL_Buffer@@@Z 10042918     luaglue.obj
 0003:0000091c       __mep@?luaL_prepbuffer@@$$FYGPADPAUluaL_Buffer@@@Z 1004291c     luaglue.obj
 0003:00000920       __mep@?luaL_getmetafield@@$$FYGHPAUlua_State@@HPBD@Z 10042920     luaglue.obj
 0003:00000924       __mep@?luaL_checkinteger@@$$FYGHPAUlua_State@@H@Z 10042924     luaglue.obj
 0003:00000928       __mep@?luaL_checknumber@@$$FYGNPAUlua_State@@H@Z 10042928     luaglue.obj
 0003:0000092c       __mep@?luaL_checklstring@@$$FYGPBDPAUlua_State@@HPAI@Z 1004292c     luaglue.obj
 0003:00000930       __mep@?luaL_checktype@@$$FYGXPAUlua_State@@HH@Z 10042930     luaglue.obj
 0003:00000934       __mep@?sort@?A0xd55f0479@@$$FYGHPAUlua_State@@@Z 10042934     luaglue.obj
 0003:00000938       __mep@?addfield@?A0xd55f0479@@$$FYGXPAUlua_State@@PAUluaL_Buffer@@H@Z 10042938     luaglue.obj
 0003:0000093c       __mep@?tinsert@?A0xd55f0479@@$$FYGHPAUlua_State@@@Z 1004293c     luaglue.obj
 0003:00000940       __mep@?setn@?A0xd55f0479@@$$FYGHPAUlua_State@@@Z 10042940     luaglue.obj
 0003:00000944       __mep@?getn@?A0xd55f0479@@$$FYGHPAUlua_State@@@Z 10042944     luaglue.obj
 0003:00000948       __mep@?maxn@?A0xd55f0479@@$$FYGHPAUlua_State@@@Z 10042948     luaglue.obj
 0003:0000094c       __mep@?foreach@?A0xd55f0479@@$$FYGHPAUlua_State@@@Z 1004294c     luaglue.obj
 0003:00000950       __mep@?foreachi@?A0xd55f0479@@$$FYGHPAUlua_State@@@Z 10042950     luaglue.obj
 0003:00000954       __mep@?gmatch_aux@?A0xd55f0479@@$$FYGHPAUlua_State@@@Z 10042954     luaglue.obj
 0003:00000958       __mep@?str_char@?A0xd55f0479@@$$FYGHPAUlua_State@@@Z 10042958     luaglue.obj
 0003:0000095c       __mep@?str_upper@?A0xd55f0479@@$$FYGHPAUlua_State@@@Z 1004295c     luaglue.obj
 0003:00000960       __mep@?str_lower@?A0xd55f0479@@$$FYGHPAUlua_State@@@Z 10042960     luaglue.obj
 0003:00000964       __mep@?str_reverse@?A0xd55f0479@@$$FYGHPAUlua_State@@@Z 10042964     luaglue.obj
 0003:00000968       __mep@?str_len@?A0xd55f0479@@$$FYGHPAUlua_State@@@Z 10042968     luaglue.obj
 0003:0000096c       __mep@?close_func@?A0xd55f0479@@$$FYGXPAULexState@@@Z 1004296c     luaglue.obj
 0003:00000970       __mep@?os_time@?A0xd55f0479@@$$FYGHPAUlua_State@@@Z 10042970     luaglue.obj
 0003:00000974       __mep@?os_getenv@?A0xd55f0479@@$$FYGHPAUlua_State@@@Z 10042974     luaglue.obj
 0003:00000978       __mep@?os_rename@?A0xd55f0479@@$$FYGHPAUlua_State@@@Z 10042978     luaglue.obj
 0003:0000097c       __mep@?os_remove@?A0xd55f0479@@$$FYGHPAUlua_State@@@Z 1004297c     luaglue.obj
 0003:00000980       __mep@?ll_seeall@?A0xd55f0479@@$$FYGHPAUlua_State@@@Z 10042980     luaglue.obj
 0003:00000984       __mep@?ll_module@?A0xd55f0479@@$$FYGHPAUlua_State@@@Z 10042984     luaglue.obj
 0003:00000988       __mep@?ll_require@?A0xd55f0479@@$$FYGHPAUlua_State@@@Z 10042988     luaglue.obj
 0003:0000098c       __mep@?loader_preload@?A0xd55f0479@@$$FYGHPAUlua_State@@@Z 1004298c     luaglue.obj
 0003:00000990       __mep@?ll_sym@?A0xd55f0479@@$$FYGP6GHPAUlua_State@@@Z0PAXPBD@Z 10042990     luaglue.obj
 0003:00000994       __mep@?ll_load@?A0xd55f0479@@$$FYGPAXPAUlua_State@@PBD@Z 10042994     luaglue.obj
 0003:00000998       __mep@?math_randomseed@?A0xd55f0479@@$$FYGHPAUlua_State@@@Z 10042998     luaglue.obj
 0003:0000099c       __mep@?math_random@?A0xd55f0479@@$$FYGHPAUlua_State@@@Z 1004299c     luaglue.obj
 0003:000009a0       __mep@?math_max@?A0xd55f0479@@$$FYGHPAUlua_State@@@Z 100429a0     luaglue.obj
 0003:000009a4       __mep@?math_min@?A0xd55f0479@@$$FYGHPAUlua_State@@@Z 100429a4     luaglue.obj
 0003:000009a8       __mep@?math_ldexp@?A0xd55f0479@@$$FYGHPAUlua_State@@@Z 100429a8     luaglue.obj
 0003:000009ac       __mep@?math_frexp@?A0xd55f0479@@$$FYGHPAUlua_State@@@Z 100429ac     luaglue.obj
 0003:000009b0       __mep@?math_rad@?A0xd55f0479@@$$FYGHPAUlua_State@@@Z 100429b0     luaglue.obj
 0003:000009b4       __mep@?math_deg@?A0xd55f0479@@$$FYGHPAUlua_State@@@Z 100429b4     luaglue.obj
 0003:000009b8       __mep@?math_exp@?A0xd55f0479@@$$FYGHPAUlua_State@@@Z 100429b8     luaglue.obj
 0003:000009bc       __mep@?math_log10@?A0xd55f0479@@$$FYGHPAUlua_State@@@Z 100429bc     luaglue.obj
 0003:000009c0       __mep@?math_log@?A0xd55f0479@@$$FYGHPAUlua_State@@@Z 100429c0     luaglue.obj
 0003:000009c4       __mep@?math_pow@?A0xd55f0479@@$$FYGHPAUlua_State@@@Z 100429c4     luaglue.obj
 0003:000009c8       __mep@?math_sqrt@?A0xd55f0479@@$$FYGHPAUlua_State@@@Z 100429c8     luaglue.obj
 0003:000009cc       __mep@?math_modf@?A0xd55f0479@@$$FYGHPAUlua_State@@@Z 100429cc     luaglue.obj
 0003:000009d0       __mep@?math_fmod@?A0xd55f0479@@$$FYGHPAUlua_State@@@Z 100429d0     luaglue.obj
 0003:000009d4       __mep@?math_floor@?A0xd55f0479@@$$FYGHPAUlua_State@@@Z 100429d4     luaglue.obj
 0003:000009d8       __mep@?math_ceil@?A0xd55f0479@@$$FYGHPAUlua_State@@@Z 100429d8     luaglue.obj
 0003:000009dc       __mep@?math_atan2@?A0xd55f0479@@$$FYGHPAUlua_State@@@Z 100429dc     luaglue.obj
 0003:000009e0       __mep@?math_atan@?A0xd55f0479@@$$FYGHPAUlua_State@@@Z 100429e0     luaglue.obj
 0003:000009e4       __mep@?math_acos@?A0xd55f0479@@$$FYGHPAUlua_State@@@Z 100429e4     luaglue.obj
 0003:000009e8       __mep@?math_asin@?A0xd55f0479@@$$FYGHPAUlua_State@@@Z 100429e8     luaglue.obj
 0003:000009ec       __mep@?math_tanh@?A0xd55f0479@@$$FYGHPAUlua_State@@@Z 100429ec     luaglue.obj
 0003:000009f0       __mep@?math_tan@?A0xd55f0479@@$$FYGHPAUlua_State@@@Z 100429f0     luaglue.obj
 0003:000009f4       __mep@?math_cosh@?A0xd55f0479@@$$FYGHPAUlua_State@@@Z 100429f4     luaglue.obj
 0003:000009f8       __mep@?math_cos@?A0xd55f0479@@$$FYGHPAUlua_State@@@Z 100429f8     luaglue.obj
 0003:000009fc       __mep@?math_sinh@?A0xd55f0479@@$$FYGHPAUlua_State@@@Z 100429fc     luaglue.obj
 0003:00000a00       __mep@?math_sin@?A0xd55f0479@@$$FYGHPAUlua_State@@@Z 10042a00     luaglue.obj
 0003:00000a04       __mep@?math_abs@?A0xd55f0479@@$$FYGHPAUlua_State@@@Z 10042a04     luaglue.obj
 0003:00000a08       __mep@?llex@?A0xd55f0479@@$$FYGHPAULexState@@PATSemInfo@@@Z 10042a08     luaglue.obj
 0003:00000a0c       __mep@?luaopen_io@@$$FYGHPAUlua_State@@@Z 10042a0c     luaglue.obj
 0003:00000a10       __mep@?f_flush@?A0xd55f0479@@$$FYGHPAUlua_State@@@Z 10042a10     luaglue.obj
 0003:00000a14       __mep@?g_write@?A0xd55f0479@@$$FYGHPAUlua_State@@PAU_iobuf@@H@Z 10042a14     luaglue.obj
 0003:00000a18       __mep@?read_chars@?A0xd55f0479@@$$FYGHPAUlua_State@@PAU_iobuf@@I@Z 10042a18     luaglue.obj
 0003:00000a1c       __mep@?read_line@?A0xd55f0479@@$$FYGHPAUlua_State@@PAU_iobuf@@@Z 10042a1c     luaglue.obj
 0003:00000a20       __mep@?g_iofile@?A0xd55f0479@@$$FYGHPAUlua_State@@HPBD@Z 10042a20     luaglue.obj
 0003:00000a24       __mep@?io_close@?A0xd55f0479@@$$FYGHPAUlua_State@@@Z 10042a24     luaglue.obj
 0003:00000a28       __mep@?lua_resume@@$$FYGHPAUlua_State@@H@Z 10042a28     luaglue.obj
 0003:00000a2c       __mep@?db_gethook@?A0xd55f0479@@$$FYGHPAUlua_State@@@Z 10042a2c     luaglue.obj
 0003:00000a30       __mep@?auxupvalue@?A0xd55f0479@@$$FYGHPAUlua_State@@H@Z 10042a30     luaglue.obj
 0003:00000a34       __mep@?db_setlocal@?A0xd55f0479@@$$FYGHPAUlua_State@@@Z 10042a34     luaglue.obj
 0003:00000a38       __mep@?db_getlocal@?A0xd55f0479@@$$FYGHPAUlua_State@@@Z 10042a38     luaglue.obj
 0003:00000a3c       __mep@?db_setfenv@?A0xd55f0479@@$$FYGHPAUlua_State@@@Z 10042a3c     luaglue.obj
 0003:00000a40       __mep@?codenot@?A0xd55f0479@@$$FYGXPAUFuncState@@PAUexpdesc@@@Z 10042a40     luaglue.obj
 0003:00000a44       __mep@?jumponcond@?A0xd55f0479@@$$FYGHPAUFuncState@@PAUexpdesc@@H@Z 10042a44     luaglue.obj
 0003:00000a48       __mep@?luaK_exp2nextreg@@$$FYGXPAUFuncState@@PAUexpdesc@@@Z 10042a48     luaglue.obj
 0003:00000a4c       __mep@?auxresume@?A0xd55f0479@@$$FYGHPAUlua_State@@0H@Z 10042a4c     luaglue.obj
 0003:00000a50       __mep@?luaB_select@?A0xd55f0479@@$$FYGHPAUlua_State@@@Z 10042a50     luaglue.obj
 0003:00000a54       __mep@?luaB_ipairs@?A0xd55f0479@@$$FYGHPAUlua_State@@@Z 10042a54     luaglue.obj
 0003:00000a58       __mep@?ipairsaux@?A0xd55f0479@@$$FYGHPAUlua_State@@@Z 10042a58     luaglue.obj
 0003:00000a5c       __mep@?luaB_pairs@?A0xd55f0479@@$$FYGHPAUlua_State@@@Z 10042a5c     luaglue.obj
 0003:00000a60       __mep@?luaB_next@?A0xd55f0479@@$$FYGHPAUlua_State@@@Z 10042a60     luaglue.obj
 0003:00000a64       __mep@?luaB_rawset@?A0xd55f0479@@$$FYGHPAUlua_State@@@Z 10042a64     luaglue.obj
 0003:00000a68       __mep@?luaB_rawget@?A0xd55f0479@@$$FYGHPAUlua_State@@@Z 10042a68     luaglue.obj
 0003:00000a6c       __mep@?luaB_setmetatable@?A0xd55f0479@@$$FYGHPAUlua_State@@@Z 10042a6c     luaglue.obj
 0003:00000a70       __mep@?luaB_getmetatable@?A0xd55f0479@@$$FYGHPAUlua_State@@@Z 10042a70     luaglue.obj
 0003:00000a74       __mep@?luaL_addlstring@@$$FYGXPAUluaL_Buffer@@PBDI@Z 10042a74     luaglue.obj
 0003:00000a78       __mep@?luaL_callmeta@@$$FYGHPAUlua_State@@HPBD@Z 10042a78     luaglue.obj
 0003:00000a7c       __mep@?luaL_optinteger@@$$FYGHPAUlua_State@@HH@Z 10042a7c     luaglue.obj
 0003:00000a80       __mep@?luaL_optnumber@@$$FYGNPAUlua_State@@HN@Z 10042a80     luaglue.obj
 0003:00000a84       __mep@?luaL_optlstring@@$$FYGPBDPAUlua_State@@HPBDPAI@Z 10042a84     luaglue.obj
 0003:00000a88       __mep@?luaL_checkoption@@$$FYGHPAUlua_State@@HPBDQBQBD@Z 10042a88     luaglue.obj
 0003:00000a8c       __mep@?tconcat@?A0xd55f0479@@$$FYGHPAUlua_State@@@Z 10042a8c     luaglue.obj
 0003:00000a90       __mep@?tremove@?A0xd55f0479@@$$FYGHPAUlua_State@@@Z 10042a90     luaglue.obj
 0003:00000a94       __mep@?addquoted@?A0xd55f0479@@$$FYGXPAUlua_State@@PAUluaL_Buffer@@H@Z 10042a94     luaglue.obj
 0003:00000a98       __mep@?add_s@?A0xd55f0479@@$$FYGXPAUMatchState@@PAUluaL_Buffer@@PBD2@Z 10042a98     luaglue.obj
 0003:00000a9c       __mep@?gmatch@?A0xd55f0479@@$$FYGHPAUlua_State@@@Z 10042a9c     luaglue.obj
 0003:00000aa0       __mep@?str_find_aux@?A0xd55f0479@@$$FYGHPAUlua_State@@H@Z 10042aa0     luaglue.obj
 0003:00000aa4       __mep@?writer@?A0xd55f0479@@$$FYGHPAUlua_State@@PBXIPAX@Z 10042aa4     luaglue.obj
 0003:00000aa8       __mep@?str_byte@?A0xd55f0479@@$$FYGHPAUlua_State@@@Z 10042aa8     luaglue.obj
 0003:00000aac       __mep@?str_rep@?A0xd55f0479@@$$FYGHPAUlua_State@@@Z 10042aac     luaglue.obj
 0003:00000ab0       __mep@?str_sub@?A0xd55f0479@@$$FYGHPAUlua_State@@@Z 10042ab0     luaglue.obj
 0003:00000ab4       __mep@?lastlistfield@?A0xd55f0479@@$$FYGXPAUFuncState@@PAUConsControl@@@Z 10042ab4     luaglue.obj
 0003:00000ab8       __mep@?closelistfield@?A0xd55f0479@@$$FYGXPAUFuncState@@PAUConsControl@@@Z 10042ab8     luaglue.obj
 0003:00000abc       __mep@?adjust_assign@?A0xd55f0479@@$$FYGXPAULexState@@HHPAUexpdesc@@@Z 10042abc     luaglue.obj
 0003:00000ac0       __mep@?os_exit@?A0xd55f0479@@$$FYGHPAUlua_State@@@Z 10042ac0     luaglue.obj
 0003:00000ac4       __mep@?os_setlocale@?A0xd55f0479@@$$FYGHPAUlua_State@@@Z 10042ac4     luaglue.obj
 0003:00000ac8       __mep@?os_difftime@?A0xd55f0479@@$$FYGHPAUlua_State@@@Z 10042ac8     luaglue.obj
 0003:00000acc       __mep@?os_date@?A0xd55f0479@@$$FYGHPAUlua_State@@@Z 10042acc     luaglue.obj
 0003:00000ad0       __mep@?os_execute@?A0xd55f0479@@$$FYGHPAUlua_State@@@Z 10042ad0     luaglue.obj
 0003:00000ad4       __mep@?ll_loadfunc@?A0xd55f0479@@$$FYGHPAUlua_State@@PBD1@Z 10042ad4     luaglue.obj
 0003:00000ad8       __mep@?luaX_lookahead@@$$FYGXPAULexState@@@Z 10042ad8     luaglue.obj
 0003:00000adc       __mep@?luaX_next@@$$FYGXPAULexState@@@Z 10042adc     luaglue.obj
 0003:00000ae0       __mep@?f_setvbuf@?A0xd55f0479@@$$FYGHPAUlua_State@@@Z 10042ae0     luaglue.obj
 0003:00000ae4       __mep@?f_seek@?A0xd55f0479@@$$FYGHPAUlua_State@@@Z 10042ae4     luaglue.obj
 0003:00000ae8       __mep@?f_write@?A0xd55f0479@@$$FYGHPAUlua_State@@@Z 10042ae8     luaglue.obj
 0003:00000aec       __mep@?io_write@?A0xd55f0479@@$$FYGHPAUlua_State@@@Z 10042aec     luaglue.obj
 0003:00000af0       __mep@?io_readline@?A0xd55f0479@@$$FYGHPAUlua_State@@@Z 10042af0     luaglue.obj
 0003:00000af4       __mep@?g_read@?A0xd55f0479@@$$FYGHPAUlua_State@@PAU_iobuf@@H@Z 10042af4     luaglue.obj
 0003:00000af8       __mep@?aux_lines@?A0xd55f0479@@$$FYGXPAUlua_State@@HH@Z 10042af8     luaglue.obj
 0003:00000afc       __mep@?io_output@?A0xd55f0479@@$$FYGHPAUlua_State@@@Z 10042afc     luaglue.obj
 0003:00000b00       __mep@?io_input@?A0xd55f0479@@$$FYGHPAUlua_State@@@Z 10042b00     luaglue.obj
 0003:00000b04       __mep@?io_popen@?A0xd55f0479@@$$FYGHPAUlua_State@@@Z 10042b04     luaglue.obj
 0003:00000b08       __mep@?io_open@?A0xd55f0479@@$$FYGHPAUlua_State@@@Z 10042b08     luaglue.obj
 0003:00000b0c       __mep@?db_sethook@?A0xd55f0479@@$$FYGHPAUlua_State@@@Z 10042b0c     luaglue.obj
 0003:00000b10       __mep@?db_setupvalue@?A0xd55f0479@@$$FYGHPAUlua_State@@@Z 10042b10     luaglue.obj
 0003:00000b14       __mep@?db_getupvalue@?A0xd55f0479@@$$FYGHPAUlua_State@@@Z 10042b14     luaglue.obj
 0003:00000b18       __mep@?db_getinfo@?A0xd55f0479@@$$FYGHPAUlua_State@@@Z 10042b18     luaglue.obj
 0003:00000b1c       __mep@?luaK_goiffalse@?A0xd55f0479@@$$FYGXPAUFuncState@@PAUexpdesc@@@Z 10042b1c     luaglue.obj
 0003:00000b20       __mep@?luaK_goiftrue@@$$FYGXPAUFuncState@@PAUexpdesc@@@Z 10042b20     luaglue.obj
 0003:00000b24       __mep@?luaK_exp2anyreg@@$$FYGHPAUFuncState@@PAUexpdesc@@@Z 10042b24     luaglue.obj
 0003:00000b28       __mep@?base_open@?A0xd55f0479@@$$FYGXPAUlua_State@@@Z 10042b28     luaglue.obj
 0003:00000b2c       __mep@?luaB_auxwrap@?A0xd55f0479@@$$FYGHPAUlua_State@@@Z 10042b2c     luaglue.obj
 0003:00000b30       __mep@?luaB_coresume@?A0xd55f0479@@$$FYGHPAUlua_State@@@Z 10042b30     luaglue.obj
 0003:00000b34       __mep@?luaB_tostring@?A0xd55f0479@@$$FYGHPAUlua_State@@@Z 10042b34     luaglue.obj
 0003:00000b38       __mep@?luaB_unpack@?A0xd55f0479@@$$FYGHPAUlua_State@@@Z 10042b38     luaglue.obj
 0003:00000b3c       __mep@?luaB_assert@?A0xd55f0479@@$$FYGHPAUlua_State@@@Z 10042b3c     luaglue.obj
 0003:00000b40       __mep@?luaB_collectgarbage@?A0xd55f0479@@$$FYGHPAUlua_State@@@Z 10042b40     luaglue.obj
 0003:00000b44       __mep@?getfunc@?A0xd55f0479@@$$FYGXPAUlua_State@@H@Z 10042b44     luaglue.obj
 0003:00000b48       __mep@?luaB_error@?A0xd55f0479@@$$FYGHPAUlua_State@@@Z 10042b48     luaglue.obj
 0003:00000b4c       __mep@?luaB_tonumber@?A0xd55f0479@@$$FYGHPAUlua_State@@@Z 10042b4c     luaglue.obj
 0003:00000b50       __mep@?luaL_addstring@@$$FYGXPAUluaL_Buffer@@PBD@Z 10042b50     luaglue.obj
 0003:00000b54       __mep@?luaL_gsub@@$$FYGPBDPAUlua_State@@PBD11@Z 10042b54     luaglue.obj
 0003:00000b58       __mep@?str_format@?A0xd55f0479@@$$FYGHPAUlua_State@@@Z 10042b58     luaglue.obj
 0003:00000b5c       __mep@?add_value@?A0xd55f0479@@$$FYGXPAUMatchState@@PAUluaL_Buffer@@PBD2@Z 10042b5c     luaglue.obj
 0003:00000b60       __mep@?str_match@?A0xd55f0479@@$$FYGHPAUlua_State@@@Z 10042b60     luaglue.obj
 0003:00000b64       __mep@?str_find@?A0xd55f0479@@$$FYGHPAUlua_State@@@Z 10042b64     luaglue.obj
 0003:00000b68       __mep@?str_dump@?A0xd55f0479@@$$FYGHPAUlua_State@@@Z 10042b68     luaglue.obj
 0003:00000b6c       __mep@?str_checkname@?A0xd55f0479@@$$FYGPATTString@@PAULexState@@@Z 10042b6c     luaglue.obj
 0003:00000b70       __mep@?checknext@?A0xd55f0479@@$$FYGXPAULexState@@H@Z 10042b70     luaglue.obj
 0003:00000b74       __mep@?testnext@?A0xd55f0479@@$$FYGHPAULexState@@H@Z 10042b74     luaglue.obj
 0003:00000b78       __mep@?mkfuncname@?A0xd55f0479@@$$FYGPBDPAUlua_State@@PBD@Z 10042b78     luaglue.obj
 0003:00000b7c       __mep@?findfile@?A0xd55f0479@@$$FYGPBDPAUlua_State@@PBD1@Z 10042b7c     luaglue.obj
 0003:00000b80       __mep@?ll_loadlib@?A0xd55f0479@@$$FYGHPAUlua_State@@@Z 10042b80     luaglue.obj
 0003:00000b84       __mep@?setprogdir@?A0xd55f0479@@$$FYGXPAUlua_State@@@Z 10042b84     luaglue.obj
 0003:00000b88       __mep@?f_read@?A0xd55f0479@@$$FYGHPAUlua_State@@@Z 10042b88     luaglue.obj
 0003:00000b8c       __mep@?io_read@?A0xd55f0479@@$$FYGHPAUlua_State@@@Z 10042b8c     luaglue.obj
 0003:00000b90       __mep@?f_lines@?A0xd55f0479@@$$FYGHPAUlua_State@@@Z 10042b90     luaglue.obj
 0003:00000b94       __mep@?luaK_exp2val@@$$FYGXPAUFuncState@@PAUexpdesc@@@Z 10042b94     luaglue.obj
 0003:00000b98       __mep@?luaopen_base@@$$FYGHPAUlua_State@@@Z 10042b98     luaglue.obj
 0003:00000b9c       __mep@?luaB_cowrap@?A0xd55f0479@@$$FYGHPAUlua_State@@@Z 10042b9c     luaglue.obj
 0003:00000ba0       __mep@?luaB_setfenv@?A0xd55f0479@@$$FYGHPAUlua_State@@@Z 10042ba0     luaglue.obj
 0003:00000ba4       __mep@?luaB_getfenv@?A0xd55f0479@@$$FYGHPAUlua_State@@@Z 10042ba4     luaglue.obj
 0003:00000ba8       __mep@?str_gsub@?A0xd55f0479@@$$FYGHPAUlua_State@@@Z 10042ba8     luaglue.obj
 0003:00000bac       __mep@?forbody@?A0xd55f0479@@$$FYGXPAULexState@@HHHH@Z 10042bac     luaglue.obj
 0003:00000bb0       __mep@?explist1@?A0xd55f0479@@$$FYGHPAULexState@@PAUexpdesc@@@Z 10042bb0     luaglue.obj
 0003:00000bb4       __mep@?parlist@?A0xd55f0479@@$$FYGXPAULexState@@@Z 10042bb4     luaglue.obj
 0003:00000bb8       __mep@?yindex@?A0xd55f0479@@$$FYGXPAULexState@@PAUexpdesc@@@Z 10042bb8     luaglue.obj
 0003:00000bbc       __mep@?singlevar@?A0xd55f0479@@$$FYGXPAULexState@@PAUexpdesc@@@Z 10042bbc     luaglue.obj
 0003:00000bc0       __mep@?checkname@?A0xd55f0479@@$$FYGXPAULexState@@PAUexpdesc@@@Z 10042bc0     luaglue.obj
 0003:00000bc4       __mep@?check_match@?A0xd55f0479@@$$FYGXPAULexState@@HHH@Z 10042bc4     luaglue.obj
 0003:00000bc8       __mep@?setpath@?A0xd55f0479@@$$FYGXPAUlua_State@@PBD11@Z 10042bc8     luaglue.obj
 0003:00000bcc       __mep@?loader_Croot@?A0xd55f0479@@$$FYGHPAUlua_State@@@Z 10042bcc     luaglue.obj
 0003:00000bd0       __mep@?loader_C@?A0xd55f0479@@$$FYGHPAUlua_State@@@Z 10042bd0     luaglue.obj
 0003:00000bd4       __mep@?io_lines@?A0xd55f0479@@$$FYGHPAUlua_State@@@Z 10042bd4     luaglue.obj
 0003:00000bd8       __mep@?luaK_exp2RK@@$$FYGHPAUFuncState@@PAUexpdesc@@@Z 10042bd8     luaglue.obj
 0003:00000bdc       __mep@?retstat@?A0xd55f0479@@$$FYGXPAULexState@@@Z 10042bdc     luaglue.obj
 0003:00000be0       __mep@?localstat@?A0xd55f0479@@$$FYGXPAULexState@@@Z 10042be0     luaglue.obj
 0003:00000be4       __mep@?forlist@?A0xd55f0479@@$$FYGXPAULexState@@PATTString@@@Z 10042be4     luaglue.obj
 0003:00000be8       __mep@?prefixexp@?A0xd55f0479@@$$FYGXPAULexState@@PAUexpdesc@@@Z 10042be8     luaglue.obj
 0003:00000bec       __mep@?body@?A0xd55f0479@@$$FYGXPAULexState@@PAUexpdesc@@HH@Z 10042bec     luaglue.obj
 0003:00000bf0       __mep@?recfield@?A0xd55f0479@@$$FYGXPAULexState@@PAUConsControl@@@Z 10042bf0     luaglue.obj
 0003:00000bf4       __mep@?luaopen_package@@$$FYGHPAUlua_State@@@Z 10042bf4     luaglue.obj
 0003:00000bf8       __mep@?luaK_infix@@$$FYGXPAUFuncState@@W4BinOpr@@PAUexpdesc@@@Z 10042bf8     luaglue.obj
 0003:00000bfc       __mep@?codecomp@?A0xd55f0479@@$$FYGXPAUFuncState@@W4OpCode@@HPAUexpdesc@@2@Z 10042bfc     luaglue.obj
 0003:00000c00       __mep@?codearith@?A0xd55f0479@@$$FYGXPAUFuncState@@W4OpCode@@PAUexpdesc@@2@Z 10042c00     luaglue.obj
 0003:00000c04       __mep@?luaK_indexed@@$$FYGXPAUFuncState@@PAUexpdesc@@1@Z 10042c04     luaglue.obj
 0003:00000c08       __mep@?luaK_self@@$$FYGXPAUFuncState@@PAUexpdesc@@1@Z 10042c08     luaglue.obj
 0003:00000c0c       __mep@?luaK_storevar@@$$FYGXPAUFuncState@@PAUexpdesc@@1@Z 10042c0c     luaglue.obj
 0003:00000c10       __mep@?localfunc@?A0xd55f0479@@$$FYGXPAULexState@@@Z 10042c10     luaglue.obj
 0003:00000c14       __mep@?constructor@?A0xd55f0479@@$$FYGXPAULexState@@PAUexpdesc@@@Z 10042c14     luaglue.obj
 0003:00000c18       __mep@?field@?A0xd55f0479@@$$FYGXPAULexState@@PAUexpdesc@@@Z 10042c18     luaglue.obj
 0003:00000c1c       __mep@?luaK_posfix@@$$FYGXPAUFuncState@@W4BinOpr@@PAUexpdesc@@2@Z 10042c1c     luaglue.obj
 0003:00000c20       __mep@?luaK_prefix@@$$FYGXPAUFuncState@@W4UnOpr@@PAUexpdesc@@@Z 10042c20     luaglue.obj
 0003:00000c24       __mep@?funcname@?A0xd55f0479@@$$FYGHPAULexState@@PAUexpdesc@@@Z 10042c24     luaglue.obj
 0003:00000c28       __mep@?funcargs@?A0xd55f0479@@$$FYGXPAULexState@@PAUexpdesc@@@Z 10042c28     luaglue.obj
 0003:00000c2c       __mep@?funcstat@?A0xd55f0479@@$$FYGXPAULexState@@H@Z 10042c2c     luaglue.obj
 0003:00000c30       __mep@?primaryexp@?A0xd55f0479@@$$FYGXPAULexState@@PAUexpdesc@@@Z 10042c30     luaglue.obj
 0003:00000c34       __mep@?assignment@?A0xd55f0479@@$$FYGXPAULexState@@PAULHS_assign@@H@Z 10042c34     luaglue.obj
 0003:00000c38       __mep@?simpleexp@?A0xd55f0479@@$$FYGXPAULexState@@PAUexpdesc@@@Z 10042c38     luaglue.obj
 0003:00000c3c       __mep@?exprstat@?A0xd55f0479@@$$FYGXPAULexState@@@Z 10042c3c     luaglue.obj
 0003:00000c40       __mep@?subexpr@?A0xd55f0479@@$$FYG?AW4BinOpr@@PAULexState@@PAUexpdesc@@I@Z 10042c40     luaglue.obj
 0003:00000c44       __mep@?expr@?A0xd55f0479@@$$FYGXPAULexState@@PAUexpdesc@@@Z 10042c44     luaglue.obj
 0003:00000c48       __mep@?exp1@?A0xd55f0479@@$$FYGHPAULexState@@@Z 10042c48     luaglue.obj
 0003:00000c4c       __mep@?cond@?A0xd55f0479@@$$FYGHPAULexState@@@Z 10042c4c     luaglue.obj
 0003:00000c50       __mep@?test_then_block@?A0xd55f0479@@$$FYGHPAULexState@@@Z 10042c50     luaglue.obj
 0003:00000c54       __mep@?fornum@?A0xd55f0479@@$$FYGXPAULexState@@PATTString@@H@Z 10042c54     luaglue.obj
 0003:00000c58       __mep@?repeatstat@?A0xd55f0479@@$$FYGXPAULexState@@H@Z 10042c58     luaglue.obj
 0003:00000c5c       __mep@?whilestat@?A0xd55f0479@@$$FYGXPAULexState@@H@Z 10042c5c     luaglue.obj
 0003:00000c60       __mep@?ifstat@?A0xd55f0479@@$$FYGXPAULexState@@H@Z 10042c60     luaglue.obj
 0003:00000c64       __mep@?forstat@?A0xd55f0479@@$$FYGXPAULexState@@H@Z 10042c64     luaglue.obj
 0003:00000c68       __mep@?statement@?A0xd55f0479@@$$FYGHPAULexState@@@Z 10042c68     luaglue.obj
 0003:00000c6c       __mep@?chunk@?A0xd55f0479@@$$FYGXPAULexState@@@Z 10042c6c     luaglue.obj
 0003:00000c70       __mep@?luaY_parser@@$$FYGPAUProto@@PAUlua_State@@PAUZio@@PAUMbuffer@@PBD@Z 10042c70     luaglue.obj
 0003:00000c74       __mep@?f_parser@?A0xd55f0479@@$$FYGXPAUlua_State@@PAX@Z 10042c74     luaglue.obj
 0003:00000c78       __mep@?luaD_protectedparser@@$$FYGHPAUlua_State@@PAUZio@@PBD@Z 10042c78     luaglue.obj
 0003:00000c7c       __mep@?lua_load@@$$FYGHPAUlua_State@@P6GPBD0PAXPAI@Z1PBD@Z 10042c7c     luaglue.obj
 0003:00000c80       __mep@?luaB_load@?A0xd55f0479@@$$FYGHPAUlua_State@@@Z 10042c80     luaglue.obj
 0003:00000c84       __mep@?luaL_loadbuffer@@$$FYGHPAUlua_State@@PBDI1@Z 10042c84     luaglue.obj
 0003:00000c88       __mep@?luaL_loadfile@@$$FYGHPAUlua_State@@PBD@Z 10042c88     luaglue.obj
 0003:00000c8c       __mep@?handle_script@?A0xd55f0479@@$$FYGHPAUlua_State@@PAPADH@Z 10042c8c     luaglue.obj
 0003:00000c90       __mep@?loadline@?A0xd55f0479@@$$FYGHPAUlua_State@@@Z 10042c90     luaglue.obj
 0003:00000c94       __mep@?dostring@?A0xd55f0479@@$$FYGHPAUlua_State@@PBD1@Z 10042c94     luaglue.obj
 0003:00000c98       __mep@?dofile@?A0xd55f0479@@$$FYGHPAUlua_State@@PBD@Z 10042c98     luaglue.obj
 0003:00000c9c       __mep@?loader_Lua@?A0xd55f0479@@$$FYGHPAUlua_State@@@Z 10042c9c     luaglue.obj
 0003:00000ca0       __mep@?db_debug@?A0xd55f0479@@$$FYGHPAUlua_State@@@Z 10042ca0     luaglue.obj
 0003:00000ca4       __mep@?luaB_dofile@?A0xd55f0479@@$$FYGHPAUlua_State@@@Z 10042ca4     luaglue.obj
 0003:00000ca8       __mep@?luaB_loadfile@?A0xd55f0479@@$$FYGHPAUlua_State@@@Z 10042ca8     luaglue.obj
 0003:00000cac       __mep@?luaB_loadstring@?A0xd55f0479@@$$FYGHPAUlua_State@@@Z 10042cac     luaglue.obj
 0003:00000cb0       __mep@?luaL_loadstring@@$$FYGHPAUlua_State@@PBD@Z 10042cb0     luaglue.obj
 0003:00000cb4       __mep@?handle_luainit@?A0xd55f0479@@$$FYGHPAUlua_State@@@Z 10042cb4     luaglue.obj
 0003:00000cb8       __mep@?runargs@?A0xd55f0479@@$$FYGHPAUlua_State@@PAPADH@Z 10042cb8     luaglue.obj
 0003:00000cbc       __mep@?dotty@?A0xd55f0479@@$$FYGXPAUlua_State@@@Z 10042cbc     luaglue.obj
 0003:00000cc0       __mep@?pmain@?A0xd55f0479@@$$FYGHPAUlua_State@@@Z 10042cc0     luaglue.obj
 0003:00000cc4       __mep@?main@@$$HYAHHPAPAD@Z 10042cc4     luaglue.obj
 0003:00000cd4       ?__type_info_root_node@@3U__type_info_node@@A 10042cd4     MSVCRT:tncleanup.obj
 0003:00001100       ?Count@AllDomains@<CrtImplementationDetails>@@2HA 10043100     MSVCMRT:mstartup.obj
 0003:00001104       ?Entered@DefaultDomain@<CrtImplementationDetails>@@2_NA 10043104     MSVCMRT:mstartup.obj
 0003:00001105       ?InitializedNative@DefaultDomain@<CrtImplementationDetails>@@2_NA 10043105     MSVCMRT:mstartup.obj
 0003:00001106       ?InitializedNativeFromCCTOR@DefaultDomain@<CrtImplementationDetails>@@2_NA 10043106     MSVCMRT:mstartup.obj
 0003:00001107       ?InitializedPerProcess@DefaultDomain@<CrtImplementationDetails>@@2_NA 10043107     MSVCMRT:mstartup.obj
 0003:000027d8       __adjust_fdiv              100447d8     <common>
 0003:000027dc       ___native_startup_state    100447dc     <common>
 0003:000027e0       ___native_startup_lock     100447e0     <common>
 0003:000027e4       ___onexitend               100447e4     <common>
 0003:000027e8       ___onexitbegin             100447e8     <common>
 0003:000027ec       ___dyn_tls_init_callback   100447ec     <common>

 entry point at        0001:0001ae20

 Static symbols

 0001:00003b09       _pre_c_init                10004b09 f   MSVCRT:crtdll.obj
 0001:00003d7e       ___DllMainCRTStartup       10004d7e f   MSVCRT:crtdll.obj
 0001:00003ebe       ?ArrayUnwindFilter@@YAHPAU_EXCEPTION_POINTERS@@@Z 10004ebe f   MSVCRT:ehvecdtr.obj
 0001:00004822       __catch$?Cleanup@LanguageSupport@<CrtImplementationDetails>@@$$FAAMXP$AAVException@System@@@Z$0 10005822 f i MSVCMRT:mstartup.obj
 0001:0000482c       __catch$?Cleanup@LanguageSupport@<CrtImplementationDetails>@@$$FAAMXP$AAVException@System@@@Z$1 1000582c f i MSVCMRT:mstartup.obj
 0001:00004b28       __catch$?_Initialize@LanguageSupport@<CrtImplementationDetails>@@$$FAAEXXZ$0 10005b28 f i MSVCMRT:mstartup.obj
 0001:00004b93       __catch$?_Initialize@LanguageSupport@<CrtImplementationDetails>@@$$FAAEXXZ$2 10005b93 f i MSVCMRT:mstartup.obj
 0001:00004c2a       __catch$?Initialize@LanguageSupport@<CrtImplementationDetails>@@$$FQAEXXZ$0 10005c2a f i MSVCMRT:mstartup.obj
 0001:00004c40       __catch$?Initialize@LanguageSupport@<CrtImplementationDetails>@@$$FQAEXXZ$2 10005c40 f i MSVCMRT:mstartup.obj
 0001:00004c59       __catch$?Initialize@LanguageSupport@<CrtImplementationDetails>@@$$FQAEXXZ$3 10005c59 f i MSVCMRT:mstartup.obj
 0001:00005002       __catch$?_atexit_helper@@$$J0YMHP6MXXZPAIPAPAP6MXXZ2@Z$0 10006002 f   MSVCMRT:msilexit.obj
 0001:0000505b       __catch$?_atexit_helper@@$$J0YMHP6MXXZPAIPAPAP6MXXZ2@Z$2 1000605b f   MSVCMRT:msilexit.obj
 0001:00005062       __catch$?_atexit_helper@@$$J0YMHP6MXXZPAIPAPAP6MXXZ2@Z$3 10006062 f   MSVCMRT:msilexit.obj
 0001:0000727f       $LN7                       1000827f f    CIL library: CIL module
 0001:0000727f       __catch$?luaD_rawrunprotected@@$$FYGHPAUlua_State@@P6GX0PAX@Z1@Z$0 1000827f f    CIL library: CIL module
 0001:00007296       $LN27                      10008296 f    CIL library: CIL module
 0001:000072b8       $LN11                      100082b8 f    CIL library: CIL module
 0001:000072b8       __catch$?luaD_rawrunprotected@@$$FYGHPAUlua_State@@P6GX0PAX@Z1@Z$1 100082b8 f    CIL library: CIL module
 0001:000072c7       $LN30                      100082c7 f    CIL library: CIL module
 0001:000072d1       __catch$?luaD_rawrunprotected@@$$FYGHPAUlua_State@@P6GX0PAX@Z1@Z$2 100082d1 f    CIL library: CIL module
